ARM GAS  C:\Users\lenovo\AppData\Local\Temp\ccUb5gf7.s 			page 1


   1              		.cpu cortex-m0
   2              		.fpu softvfp
   3              		.eabi_attribute 20, 1
   4              		.eabi_attribute 21, 1
   5              		.eabi_attribute 23, 3
   6              		.eabi_attribute 24, 1
   7              		.eabi_attribute 25, 1
   8              		.eabi_attribute 26, 1
   9              		.eabi_attribute 30, 1
  10              		.eabi_attribute 34, 0
  11              		.eabi_attribute 18, 4
  12              		.code	16
  13              		.file	"ADC_SAR_Seq.c"
  14              		.text
  15              	.Ltext0:
  16              		.cfi_sections	.debug_frame
  17              		.global	__aeabi_idiv
  18              		.section	.text.ADC_SAR_Seq_Init,"ax",%progbits
  19              		.align	2
  20              		.global	ADC_SAR_Seq_Init
  21              		.code	16
  22              		.thumb_func
  23              		.type	ADC_SAR_Seq_Init, %function
  24              	ADC_SAR_Seq_Init:
  25              	.LFB1:
  26              		.file 1 ".\\Generated_Source\\PSoC4\\ADC_SAR_Seq.c"
   1:.\Generated_Source\PSoC4/ADC_SAR_Seq.c **** /*******************************************************************************
   2:.\Generated_Source\PSoC4/ADC_SAR_Seq.c **** * File Name: ADC_SAR_Seq.c
   3:.\Generated_Source\PSoC4/ADC_SAR_Seq.c **** * Version 2.20
   4:.\Generated_Source\PSoC4/ADC_SAR_Seq.c **** *
   5:.\Generated_Source\PSoC4/ADC_SAR_Seq.c **** * Description:
   6:.\Generated_Source\PSoC4/ADC_SAR_Seq.c **** *  This file provides the source code to the API for the Sequencing Successive
   7:.\Generated_Source\PSoC4/ADC_SAR_Seq.c **** *  Approximation ADC Component Component.
   8:.\Generated_Source\PSoC4/ADC_SAR_Seq.c **** *
   9:.\Generated_Source\PSoC4/ADC_SAR_Seq.c **** * Note:
  10:.\Generated_Source\PSoC4/ADC_SAR_Seq.c **** *
  11:.\Generated_Source\PSoC4/ADC_SAR_Seq.c **** ********************************************************************************
  12:.\Generated_Source\PSoC4/ADC_SAR_Seq.c **** * Copyright 2008-2015, Cypress Semiconductor Corporation.  All rights reserved.
  13:.\Generated_Source\PSoC4/ADC_SAR_Seq.c **** * You may use this file only in accordance with the license, terms, conditions,
  14:.\Generated_Source\PSoC4/ADC_SAR_Seq.c **** * disclaimers, and limitations in the end user license agreement accompanying
  15:.\Generated_Source\PSoC4/ADC_SAR_Seq.c **** * the software package with which this file was provided.
  16:.\Generated_Source\PSoC4/ADC_SAR_Seq.c **** *******************************************************************************/
  17:.\Generated_Source\PSoC4/ADC_SAR_Seq.c **** 
  18:.\Generated_Source\PSoC4/ADC_SAR_Seq.c **** #include "ADC_SAR_Seq.h"
  19:.\Generated_Source\PSoC4/ADC_SAR_Seq.c **** 
  20:.\Generated_Source\PSoC4/ADC_SAR_Seq.c **** 
  21:.\Generated_Source\PSoC4/ADC_SAR_Seq.c **** /***************************************
  22:.\Generated_Source\PSoC4/ADC_SAR_Seq.c **** * Global data allocation
  23:.\Generated_Source\PSoC4/ADC_SAR_Seq.c **** ***************************************/
  24:.\Generated_Source\PSoC4/ADC_SAR_Seq.c **** uint8 ADC_SAR_Seq_initVar = 0u;
  25:.\Generated_Source\PSoC4/ADC_SAR_Seq.c **** volatile int16 ADC_SAR_Seq_offset[ADC_SAR_Seq_TOTAL_CHANNELS_NUM];
  26:.\Generated_Source\PSoC4/ADC_SAR_Seq.c **** volatile int32 ADC_SAR_Seq_countsPer10Volt[ADC_SAR_Seq_TOTAL_CHANNELS_NUM];   /* Gain compensation 
  27:.\Generated_Source\PSoC4/ADC_SAR_Seq.c **** 
  28:.\Generated_Source\PSoC4/ADC_SAR_Seq.c **** 
  29:.\Generated_Source\PSoC4/ADC_SAR_Seq.c **** /***************************************
  30:.\Generated_Source\PSoC4/ADC_SAR_Seq.c **** * Local data allocation
  31:.\Generated_Source\PSoC4/ADC_SAR_Seq.c **** ***************************************/
ARM GAS  C:\Users\lenovo\AppData\Local\Temp\ccUb5gf7.s 			page 2


  32:.\Generated_Source\PSoC4/ADC_SAR_Seq.c **** /* Channels configuration generated by customiser */
  33:.\Generated_Source\PSoC4/ADC_SAR_Seq.c **** static const uint32 CYCODE ADC_SAR_Seq_channelsConfig[] = { 0x00000402u, 0x00000402u };
  34:.\Generated_Source\PSoC4/ADC_SAR_Seq.c **** 
  35:.\Generated_Source\PSoC4/ADC_SAR_Seq.c **** 
  36:.\Generated_Source\PSoC4/ADC_SAR_Seq.c **** /*******************************************************************************
  37:.\Generated_Source\PSoC4/ADC_SAR_Seq.c **** * Function Name: ADC_SAR_Seq_Start
  38:.\Generated_Source\PSoC4/ADC_SAR_Seq.c **** ********************************************************************************
  39:.\Generated_Source\PSoC4/ADC_SAR_Seq.c **** *
  40:.\Generated_Source\PSoC4/ADC_SAR_Seq.c **** * Summary:
  41:.\Generated_Source\PSoC4/ADC_SAR_Seq.c **** *  Performs all required initialization for this component
  42:.\Generated_Source\PSoC4/ADC_SAR_Seq.c **** *  and enables the power. The power will be set to the appropriate
  43:.\Generated_Source\PSoC4/ADC_SAR_Seq.c **** *  power based on the clock frequency.
  44:.\Generated_Source\PSoC4/ADC_SAR_Seq.c **** *
  45:.\Generated_Source\PSoC4/ADC_SAR_Seq.c **** * Parameters:
  46:.\Generated_Source\PSoC4/ADC_SAR_Seq.c **** *  None.
  47:.\Generated_Source\PSoC4/ADC_SAR_Seq.c **** *
  48:.\Generated_Source\PSoC4/ADC_SAR_Seq.c **** * Return:
  49:.\Generated_Source\PSoC4/ADC_SAR_Seq.c **** *  None.
  50:.\Generated_Source\PSoC4/ADC_SAR_Seq.c **** *
  51:.\Generated_Source\PSoC4/ADC_SAR_Seq.c **** * Global variables:
  52:.\Generated_Source\PSoC4/ADC_SAR_Seq.c **** *  The ADC_SAR_Seq_initVar variable is used to indicate when/if initial
  53:.\Generated_Source\PSoC4/ADC_SAR_Seq.c **** *  configuration of this component has happened. The variable is initialized to
  54:.\Generated_Source\PSoC4/ADC_SAR_Seq.c **** *  zero and set to 1 the first time ADC_Start() is called. This allows for
  55:.\Generated_Source\PSoC4/ADC_SAR_Seq.c **** *  component Re-Start without re-initialization in all subsequent calls to the
  56:.\Generated_Source\PSoC4/ADC_SAR_Seq.c **** *  ADC_SAR_Seq_Start() routine.
  57:.\Generated_Source\PSoC4/ADC_SAR_Seq.c **** *  If re-initialization of the component is required the variable should be set
  58:.\Generated_Source\PSoC4/ADC_SAR_Seq.c **** *  to zero before call of ADC_SAR_Seq_Start() routine, or the user may call
  59:.\Generated_Source\PSoC4/ADC_SAR_Seq.c **** *  ADC_SAR_Seq_Init() and ADC_SAR_Seq_Enable() as done in the
  60:.\Generated_Source\PSoC4/ADC_SAR_Seq.c **** *  ADC_SAR_Seq_Start() routine.
  61:.\Generated_Source\PSoC4/ADC_SAR_Seq.c **** *
  62:.\Generated_Source\PSoC4/ADC_SAR_Seq.c **** *******************************************************************************/
  63:.\Generated_Source\PSoC4/ADC_SAR_Seq.c **** void ADC_SAR_Seq_Start(void)
  64:.\Generated_Source\PSoC4/ADC_SAR_Seq.c **** {
  65:.\Generated_Source\PSoC4/ADC_SAR_Seq.c ****     /* If not Initialized then initialize all required hardware and software */
  66:.\Generated_Source\PSoC4/ADC_SAR_Seq.c ****     if(ADC_SAR_Seq_initVar == 0u)
  67:.\Generated_Source\PSoC4/ADC_SAR_Seq.c ****     {
  68:.\Generated_Source\PSoC4/ADC_SAR_Seq.c ****         ADC_SAR_Seq_Init();
  69:.\Generated_Source\PSoC4/ADC_SAR_Seq.c ****         ADC_SAR_Seq_initVar = 1u;
  70:.\Generated_Source\PSoC4/ADC_SAR_Seq.c ****     }
  71:.\Generated_Source\PSoC4/ADC_SAR_Seq.c ****     ADC_SAR_Seq_Enable();
  72:.\Generated_Source\PSoC4/ADC_SAR_Seq.c **** }
  73:.\Generated_Source\PSoC4/ADC_SAR_Seq.c **** 
  74:.\Generated_Source\PSoC4/ADC_SAR_Seq.c **** 
  75:.\Generated_Source\PSoC4/ADC_SAR_Seq.c **** /*******************************************************************************
  76:.\Generated_Source\PSoC4/ADC_SAR_Seq.c **** * Function Name: ADC_SAR_Seq_Init
  77:.\Generated_Source\PSoC4/ADC_SAR_Seq.c **** ********************************************************************************
  78:.\Generated_Source\PSoC4/ADC_SAR_Seq.c **** *
  79:.\Generated_Source\PSoC4/ADC_SAR_Seq.c **** * Summary:
  80:.\Generated_Source\PSoC4/ADC_SAR_Seq.c **** *  Initialize component's parameters to the parameters set by user in the
  81:.\Generated_Source\PSoC4/ADC_SAR_Seq.c **** *  customizer of the component placed onto schematic. Usually called in
  82:.\Generated_Source\PSoC4/ADC_SAR_Seq.c **** *  ADC_SAR_Seq_Start().
  83:.\Generated_Source\PSoC4/ADC_SAR_Seq.c **** *
  84:.\Generated_Source\PSoC4/ADC_SAR_Seq.c **** * Parameters:
  85:.\Generated_Source\PSoC4/ADC_SAR_Seq.c **** *  None.
  86:.\Generated_Source\PSoC4/ADC_SAR_Seq.c **** *
  87:.\Generated_Source\PSoC4/ADC_SAR_Seq.c **** * Return:
  88:.\Generated_Source\PSoC4/ADC_SAR_Seq.c **** *  None.
ARM GAS  C:\Users\lenovo\AppData\Local\Temp\ccUb5gf7.s 			page 3


  89:.\Generated_Source\PSoC4/ADC_SAR_Seq.c **** *
  90:.\Generated_Source\PSoC4/ADC_SAR_Seq.c **** * Global variables:
  91:.\Generated_Source\PSoC4/ADC_SAR_Seq.c **** *  The ADC_SAR_Seq_offset variable is initialized.
  92:.\Generated_Source\PSoC4/ADC_SAR_Seq.c **** *
  93:.\Generated_Source\PSoC4/ADC_SAR_Seq.c **** *******************************************************************************/
  94:.\Generated_Source\PSoC4/ADC_SAR_Seq.c **** void ADC_SAR_Seq_Init(void)
  95:.\Generated_Source\PSoC4/ADC_SAR_Seq.c **** {
  27              		.loc 1 95 0
  28              		.cfi_startproc
  29 0000 10B5     		push	{r4, lr}
  30              		.cfi_def_cfa_offset 8
  31              		.cfi_offset 4, -8
  32              		.cfi_offset 14, -4
  96:.\Generated_Source\PSoC4/ADC_SAR_Seq.c ****     uint32 chNum;
  97:.\Generated_Source\PSoC4/ADC_SAR_Seq.c ****     uint32 tmpRegVal;
  98:.\Generated_Source\PSoC4/ADC_SAR_Seq.c ****     int32 counts;
  99:.\Generated_Source\PSoC4/ADC_SAR_Seq.c **** 
 100:.\Generated_Source\PSoC4/ADC_SAR_Seq.c ****     #if(ADC_SAR_Seq_TOTAL_CHANNELS_NUM > 1u)
 101:.\Generated_Source\PSoC4/ADC_SAR_Seq.c ****         static const uint8 CYCODE ADC_SAR_Seq_InputsPlacement[] =
 102:.\Generated_Source\PSoC4/ADC_SAR_Seq.c ****         {
 103:.\Generated_Source\PSoC4/ADC_SAR_Seq.c ****             (uint8)(ADC_SAR_Seq_cy_psoc4_sarmux_8__CH_0_PORT << 4u) |
 104:.\Generated_Source\PSoC4/ADC_SAR_Seq.c ****             (uint8)ADC_SAR_Seq_cy_psoc4_sarmux_8__CH_0_PIN
 105:.\Generated_Source\PSoC4/ADC_SAR_Seq.c ****             ,(uint8)(ADC_SAR_Seq_cy_psoc4_sarmux_8__CH_1_PORT << 4u) |
 106:.\Generated_Source\PSoC4/ADC_SAR_Seq.c ****              (uint8)ADC_SAR_Seq_cy_psoc4_sarmux_8__CH_1_PIN
 107:.\Generated_Source\PSoC4/ADC_SAR_Seq.c ****             #if(ADC_SAR_Seq_TOTAL_CHANNELS_NUM > 2u)
 108:.\Generated_Source\PSoC4/ADC_SAR_Seq.c ****                 ,(uint8)(ADC_SAR_Seq_cy_psoc4_sarmux_8__CH_2_PORT << 4u) |
 109:.\Generated_Source\PSoC4/ADC_SAR_Seq.c ****                  (uint8)ADC_SAR_Seq_cy_psoc4_sarmux_8__CH_2_PIN
 110:.\Generated_Source\PSoC4/ADC_SAR_Seq.c ****             #endif /* End ADC_SAR_Seq_TOTAL_CHANNELS_NUM > 2u */
 111:.\Generated_Source\PSoC4/ADC_SAR_Seq.c ****             #if(ADC_SAR_Seq_TOTAL_CHANNELS_NUM > 3u)
 112:.\Generated_Source\PSoC4/ADC_SAR_Seq.c ****                 ,(uint8)(ADC_SAR_Seq_cy_psoc4_sarmux_8__CH_3_PORT << 4u) |
 113:.\Generated_Source\PSoC4/ADC_SAR_Seq.c ****                  (uint8)ADC_SAR_Seq_cy_psoc4_sarmux_8__CH_3_PIN
 114:.\Generated_Source\PSoC4/ADC_SAR_Seq.c ****             #endif /* End ADC_SAR_Seq_TOTAL_CHANNELS_NUM > 3u */
 115:.\Generated_Source\PSoC4/ADC_SAR_Seq.c ****             #if(ADC_SAR_Seq_TOTAL_CHANNELS_NUM > 4u)
 116:.\Generated_Source\PSoC4/ADC_SAR_Seq.c ****                 ,(uint8)(ADC_SAR_Seq_cy_psoc4_sarmux_8__CH_4_PORT << 4u) |
 117:.\Generated_Source\PSoC4/ADC_SAR_Seq.c ****                  (uint8)ADC_SAR_Seq_cy_psoc4_sarmux_8__CH_4_PIN
 118:.\Generated_Source\PSoC4/ADC_SAR_Seq.c ****             #endif /* End ADC_SAR_Seq_TOTAL_CHANNELS_NUM > 4u */
 119:.\Generated_Source\PSoC4/ADC_SAR_Seq.c ****             #if(ADC_SAR_Seq_TOTAL_CHANNELS_NUM > 5u)
 120:.\Generated_Source\PSoC4/ADC_SAR_Seq.c ****                 ,(uint8)(ADC_SAR_Seq_cy_psoc4_sarmux_8__CH_5_PORT << 4u) |
 121:.\Generated_Source\PSoC4/ADC_SAR_Seq.c ****                  (uint8)ADC_SAR_Seq_cy_psoc4_sarmux_8__CH_5_PIN
 122:.\Generated_Source\PSoC4/ADC_SAR_Seq.c ****             #endif /* End ADC_SAR_Seq_TOTAL_CHANNELS_NUM > 5u */
 123:.\Generated_Source\PSoC4/ADC_SAR_Seq.c ****             #if(ADC_SAR_Seq_TOTAL_CHANNELS_NUM > 6u)
 124:.\Generated_Source\PSoC4/ADC_SAR_Seq.c ****                 ,(uint8)(ADC_SAR_Seq_cy_psoc4_sarmux_8__CH_6_PORT << 4u) |
 125:.\Generated_Source\PSoC4/ADC_SAR_Seq.c ****                  (uint8)ADC_SAR_Seq_cy_psoc4_sarmux_8__CH_6_PIN
 126:.\Generated_Source\PSoC4/ADC_SAR_Seq.c ****             #endif /* End ADC_SAR_Seq_TOTAL_CHANNELS_NUM > 6u */
 127:.\Generated_Source\PSoC4/ADC_SAR_Seq.c ****             #if(ADC_SAR_Seq_TOTAL_CHANNELS_NUM > 7u)
 128:.\Generated_Source\PSoC4/ADC_SAR_Seq.c ****                 ,(uint8)(ADC_SAR_Seq_cy_psoc4_sarmux_8__CH_7_PORT << 4u) |
 129:.\Generated_Source\PSoC4/ADC_SAR_Seq.c ****                  (uint8)ADC_SAR_Seq_cy_psoc4_sarmux_8__CH_7_PIN
 130:.\Generated_Source\PSoC4/ADC_SAR_Seq.c ****             #endif /* End ADC_SAR_Seq_TOTAL_CHANNELS_NUM > 7u */
 131:.\Generated_Source\PSoC4/ADC_SAR_Seq.c ****             #if(ADC_SAR_Seq_TOTAL_CHANNELS_NUM > 8u)
 132:.\Generated_Source\PSoC4/ADC_SAR_Seq.c ****                 ,(uint8)(ADC_SAR_Seq_cy_psoc4_sarmux_8__CH_8_PORT << 4u) |
 133:.\Generated_Source\PSoC4/ADC_SAR_Seq.c ****                  (uint8)ADC_SAR_Seq_cy_psoc4_sarmux_8__CH_8_PIN
 134:.\Generated_Source\PSoC4/ADC_SAR_Seq.c ****             #endif /* End ADC_SAR_Seq_TOTAL_CHANNELS_NUM > 8u */
 135:.\Generated_Source\PSoC4/ADC_SAR_Seq.c ****             #if(ADC_SAR_Seq_TOTAL_CHANNELS_NUM > 9u)
 136:.\Generated_Source\PSoC4/ADC_SAR_Seq.c ****                 ,(uint8)(ADC_SAR_Seq_cy_psoc4_sarmux_8__CH_9_PORT << 4u) |
 137:.\Generated_Source\PSoC4/ADC_SAR_Seq.c ****                  (uint8)ADC_SAR_Seq_cy_psoc4_sarmux_8__CH_9_PIN
 138:.\Generated_Source\PSoC4/ADC_SAR_Seq.c ****             #endif /* End ADC_SAR_Seq_TOTAL_CHANNELS_NUM > 9u */
 139:.\Generated_Source\PSoC4/ADC_SAR_Seq.c ****             #if(ADC_SAR_Seq_TOTAL_CHANNELS_NUM > 10u)
ARM GAS  C:\Users\lenovo\AppData\Local\Temp\ccUb5gf7.s 			page 4


 140:.\Generated_Source\PSoC4/ADC_SAR_Seq.c ****                 ,(uint8)(ADC_SAR_Seq_cy_psoc4_sarmux_8__CH_10_PORT << 4u) |
 141:.\Generated_Source\PSoC4/ADC_SAR_Seq.c ****                  (uint8)ADC_SAR_Seq_cy_psoc4_sarmux_8__CH_10_PIN
 142:.\Generated_Source\PSoC4/ADC_SAR_Seq.c ****             #endif /* End ADC_SAR_Seq_TOTAL_CHANNELS_NUM > 10u */
 143:.\Generated_Source\PSoC4/ADC_SAR_Seq.c ****             #if(ADC_SAR_Seq_TOTAL_CHANNELS_NUM > 11u)
 144:.\Generated_Source\PSoC4/ADC_SAR_Seq.c ****                 ,(uint8)(ADC_SAR_Seq_cy_psoc4_sarmux_8__CH_11_PORT << 4u) |
 145:.\Generated_Source\PSoC4/ADC_SAR_Seq.c ****                  (uint8)ADC_SAR_Seq_cy_psoc4_sarmux_8__CH_11_PIN
 146:.\Generated_Source\PSoC4/ADC_SAR_Seq.c ****             #endif /* End ADC_SAR_Seq_TOTAL_CHANNELS_NUM > 11u */
 147:.\Generated_Source\PSoC4/ADC_SAR_Seq.c ****             #if(ADC_SAR_Seq_TOTAL_CHANNELS_NUM > 12u)
 148:.\Generated_Source\PSoC4/ADC_SAR_Seq.c ****                 ,(uint8)(ADC_SAR_Seq_cy_psoc4_sarmux_8__CH_12_PORT << 4u) |
 149:.\Generated_Source\PSoC4/ADC_SAR_Seq.c ****                  (uint8)ADC_SAR_Seq_cy_psoc4_sarmux_8__CH_12_PIN
 150:.\Generated_Source\PSoC4/ADC_SAR_Seq.c ****             #endif /* End ADC_SAR_Seq_TOTAL_CHANNELS_NUM > 12u */
 151:.\Generated_Source\PSoC4/ADC_SAR_Seq.c ****             #if(ADC_SAR_Seq_TOTAL_CHANNELS_NUM > 13u)
 152:.\Generated_Source\PSoC4/ADC_SAR_Seq.c ****                 ,(uint8)(ADC_SAR_Seq_cy_psoc4_sarmux_8__CH_13_PORT << 4u) |
 153:.\Generated_Source\PSoC4/ADC_SAR_Seq.c ****                  (uint8)ADC_SAR_Seq_cy_psoc4_sarmux_8__CH_13_PIN
 154:.\Generated_Source\PSoC4/ADC_SAR_Seq.c ****             #endif /* End ADC_SAR_Seq_TOTAL_CHANNELS_NUM > 13u */
 155:.\Generated_Source\PSoC4/ADC_SAR_Seq.c ****             #if(ADC_SAR_Seq_TOTAL_CHANNELS_NUM > 14u)
 156:.\Generated_Source\PSoC4/ADC_SAR_Seq.c ****                 ,(uint8)(ADC_SAR_Seq_cy_psoc4_sarmux_8__CH_14_PORT << 4u) |
 157:.\Generated_Source\PSoC4/ADC_SAR_Seq.c ****                  (uint8)ADC_SAR_Seq_cy_psoc4_sarmux_8__CH_14_PIN
 158:.\Generated_Source\PSoC4/ADC_SAR_Seq.c ****             #endif /* End ADC_SAR_Seq_TOTAL_CHANNELS_NUM > 14u */
 159:.\Generated_Source\PSoC4/ADC_SAR_Seq.c ****             #if(ADC_SAR_Seq_TOTAL_CHANNELS_NUM > 15u)
 160:.\Generated_Source\PSoC4/ADC_SAR_Seq.c ****                 ,(uint8)(ADC_SAR_Seq_cy_psoc4_sarmux_8__CH_15_PORT << 4u) |
 161:.\Generated_Source\PSoC4/ADC_SAR_Seq.c ****                  (uint8)ADC_SAR_Seq_cy_psoc4_sarmux_8__CH_15_PIN
 162:.\Generated_Source\PSoC4/ADC_SAR_Seq.c ****             #endif /* End ADC_SAR_Seq_TOTAL_CHANNELS_NUM > 15u */
 163:.\Generated_Source\PSoC4/ADC_SAR_Seq.c ****             #if(ADC_SAR_Seq_TOTAL_CHANNELS_NUM > 16u)
 164:.\Generated_Source\PSoC4/ADC_SAR_Seq.c ****                 ,(uint8)(ADC_SAR_Seq_cy_psoc4_sarmux_8__CH_16_PORT << 4u) |
 165:.\Generated_Source\PSoC4/ADC_SAR_Seq.c ****                  (uint8)ADC_SAR_Seq_cy_psoc4_sarmux_8__CH_16_PIN
 166:.\Generated_Source\PSoC4/ADC_SAR_Seq.c ****             #endif /* End ADC_SAR_Seq_TOTAL_CHANNELS_NUM > 16u */
 167:.\Generated_Source\PSoC4/ADC_SAR_Seq.c ****         };
 168:.\Generated_Source\PSoC4/ADC_SAR_Seq.c ****     #endif /* End ADC_SAR_Seq_TOTAL_CHANNELS_NUM > 1u */
 169:.\Generated_Source\PSoC4/ADC_SAR_Seq.c **** 
 170:.\Generated_Source\PSoC4/ADC_SAR_Seq.c ****     #if(ADC_SAR_Seq_IRQ_REMOVE == 0u)
 171:.\Generated_Source\PSoC4/ADC_SAR_Seq.c ****         /* Start and set interrupt vector */
 172:.\Generated_Source\PSoC4/ADC_SAR_Seq.c ****         CyIntSetPriority(ADC_SAR_Seq_INTC_NUMBER, ADC_SAR_Seq_INTC_PRIOR_NUMBER);
  33              		.loc 1 172 0
  34 0002 0E20     		mov	r0, #14
  35 0004 0321     		mov	r1, #3
  36 0006 FFF7FEFF 		bl	CyIntSetPriority
  37              	.LVL0:
 173:.\Generated_Source\PSoC4/ADC_SAR_Seq.c ****         (void)CyIntSetVector(ADC_SAR_Seq_INTC_NUMBER, &ADC_SAR_Seq_ISR);
  38              		.loc 1 173 0
  39 000a 0E20     		mov	r0, #14
  40 000c 4349     		ldr	r1, .L12
  41 000e FFF7FEFF 		bl	CyIntSetVector
  42              	.LVL1:
 174:.\Generated_Source\PSoC4/ADC_SAR_Seq.c ****     #endif   /* End ADC_SAR_Seq_IRQ_REMOVE */
 175:.\Generated_Source\PSoC4/ADC_SAR_Seq.c **** 
 176:.\Generated_Source\PSoC4/ADC_SAR_Seq.c ****     /* Init SAR and MUX registers */
 177:.\Generated_Source\PSoC4/ADC_SAR_Seq.c ****     ADC_SAR_Seq_SAR_CHAN_EN_REG = ADC_SAR_Seq_DEFAULT_EN_CHANNELS;
  43              		.loc 1 177 0
  44 0012 0322     		mov	r2, #3
  45 0014 424B     		ldr	r3, .L12+4
  46 0016 1A60     		str	r2, [r3]
 178:.\Generated_Source\PSoC4/ADC_SAR_Seq.c ****     ADC_SAR_Seq_SAR_CTRL_REG |= ADC_SAR_Seq_DEFAULT_CTRL_REG_CFG | 
 179:.\Generated_Source\PSoC4/ADC_SAR_Seq.c ****         /* Enable the SAR internal pump when global pump is enabled */
 180:.\Generated_Source\PSoC4/ADC_SAR_Seq.c ****         (((ADC_SAR_Seq_PUMP_CTRL_REG & ADC_SAR_Seq_PUMP_CTRL_ENABLED) != 0u) ? 
  47              		.loc 1 180 0
  48 0018 424B     		ldr	r3, .L12+8
ARM GAS  C:\Users\lenovo\AppData\Local\Temp\ccUb5gf7.s 			page 5


  49 001a 1B68     		ldr	r3, [r3]
 178:.\Generated_Source\PSoC4/ADC_SAR_Seq.c ****     ADC_SAR_Seq_SAR_CTRL_REG |= ADC_SAR_Seq_DEFAULT_CTRL_REG_CFG | 
  50              		.loc 1 178 0
  51 001c 002B     		cmp	r3, #0
  52 001e 01DA     		bge	.L10
  53 0020 4149     		ldr	r1, .L12+12
  54 0022 00E0     		b	.L2
  55              	.L10:
  56 0024 4149     		ldr	r1, .L12+16
  57              	.L2:
 178:.\Generated_Source\PSoC4/ADC_SAR_Seq.c ****     ADC_SAR_Seq_SAR_CTRL_REG |= ADC_SAR_Seq_DEFAULT_CTRL_REG_CFG | 
  58              		.loc 1 178 0 is_stmt 0 discriminator 4
  59 0026 424A     		ldr	r2, .L12+20
  60 0028 1368     		ldr	r3, [r2]
  61 002a 0B43     		orr	r3, r1
  62 002c 1360     		str	r3, [r2]
 181:.\Generated_Source\PSoC4/ADC_SAR_Seq.c ****         ADC_SAR_Seq_BOOSTPUMP_EN : 0u);
 182:.\Generated_Source\PSoC4/ADC_SAR_Seq.c ****     ADC_SAR_Seq_SAR_SAMPLE_CTRL_REG = ADC_SAR_Seq_DEFAULT_SAMPLE_CTRL_REG_CFG;
  63              		.loc 1 182 0 is_stmt 1 discriminator 4
  64 002e 414A     		ldr	r2, .L12+24
  65 0030 414B     		ldr	r3, .L12+28
  66 0032 1A60     		str	r2, [r3]
 183:.\Generated_Source\PSoC4/ADC_SAR_Seq.c ****     ADC_SAR_Seq_SAR_RANGE_THRES_REG = ADC_SAR_Seq_DEFAULT_RANGE_THRES_REG_CFG;
  67              		.loc 1 183 0 discriminator 4
  68 0034 414A     		ldr	r2, .L12+32
  69 0036 424B     		ldr	r3, .L12+36
  70 0038 1A60     		str	r2, [r3]
 184:.\Generated_Source\PSoC4/ADC_SAR_Seq.c ****     ADC_SAR_Seq_SAR_RANGE_COND_REG  = ADC_SAR_Seq_COMPARE_MODE;
  71              		.loc 1 184 0 discriminator 4
  72 003a 8022     		mov	r2, #128
  73 003c D205     		lsl	r2, r2, #23
  74 003e 414B     		ldr	r3, .L12+40
  75 0040 1A60     		str	r2, [r3]
 185:.\Generated_Source\PSoC4/ADC_SAR_Seq.c ****     ADC_SAR_Seq_SAR_SAMPLE_TIME01_REG = ADC_SAR_Seq_DEFAULT_SAMPLE_TIME01_REG_CFG;
  76              		.loc 1 185 0 discriminator 4
  77 0042 414B     		ldr	r3, .L12+44
  78 0044 414A     		ldr	r2, .L12+48
  79 0046 1360     		str	r3, [r2]
 186:.\Generated_Source\PSoC4/ADC_SAR_Seq.c ****     ADC_SAR_Seq_SAR_SAMPLE_TIME23_REG = ADC_SAR_Seq_DEFAULT_SAMPLE_TIME23_REG_CFG;
  80              		.loc 1 186 0 discriminator 4
  81 0048 414A     		ldr	r2, .L12+52
  82 004a 1360     		str	r3, [r2]
 187:.\Generated_Source\PSoC4/ADC_SAR_Seq.c ****     
 188:.\Generated_Source\PSoC4/ADC_SAR_Seq.c ****     /* Connect Vm to VSSA when even one channel is single-ended or multiple channels configured */
 189:.\Generated_Source\PSoC4/ADC_SAR_Seq.c ****     #if(ADC_SAR_Seq_DEFAULT_MUX_SWITCH0 != 0u)
 190:.\Generated_Source\PSoC4/ADC_SAR_Seq.c ****         ADC_SAR_Seq_MUX_SWITCH0_REG |= ADC_SAR_Seq_DEFAULT_MUX_SWITCH0;
  83              		.loc 1 190 0 discriminator 4
  84 004c 414B     		ldr	r3, .L12+56
  85 004e 1A68     		ldr	r2, [r3]
  86 0050 8021     		mov	r1, #128
  87 0052 4902     		lsl	r1, r1, #9
  88 0054 0A43     		orr	r2, r1
  89 0056 1A60     		str	r2, [r3]
 191:.\Generated_Source\PSoC4/ADC_SAR_Seq.c ****         /* Set MUX_HW_CTRL_VSSA in MUX_SWITCH_HW_CTRL when multiple channels enabled */
 192:.\Generated_Source\PSoC4/ADC_SAR_Seq.c ****         #if(ADC_SAR_Seq_TOTAL_CHANNELS_NUM > 1u)
 193:.\Generated_Source\PSoC4/ADC_SAR_Seq.c ****             ADC_SAR_Seq_MUX_SWITCH_HW_CTRL_REG |= ADC_SAR_Seq_DEFAULT_MUX_SWITCH0;
  90              		.loc 1 193 0 discriminator 4
ARM GAS  C:\Users\lenovo\AppData\Local\Temp\ccUb5gf7.s 			page 6


  91 0058 3F4A     		ldr	r2, .L12+60
  92 005a 1368     		ldr	r3, [r2]
  93 005c 0B43     		orr	r3, r1
  94 005e 1360     		str	r3, [r2]
 194:.\Generated_Source\PSoC4/ADC_SAR_Seq.c ****         #endif /* ADC_SAR_Seq_TOTAL_CHANNELS_NUM > 1u */
 195:.\Generated_Source\PSoC4/ADC_SAR_Seq.c ****     #endif /*ADC_SAR_Seq_CHANNELS_MODE !=0 */
 196:.\Generated_Source\PSoC4/ADC_SAR_Seq.c **** 
 197:.\Generated_Source\PSoC4/ADC_SAR_Seq.c ****     ADC_SAR_Seq_SAR_SATURATE_INTR_MASK_REG = 0u;
  95              		.loc 1 197 0 discriminator 4
  96 0060 0023     		mov	r3, #0
  97 0062 3E4A     		ldr	r2, .L12+64
  98 0064 1360     		str	r3, [r2]
 198:.\Generated_Source\PSoC4/ADC_SAR_Seq.c ****     ADC_SAR_Seq_SAR_RANGE_INTR_MASK_REG = 0u;
  99              		.loc 1 198 0 discriminator 4
 100 0066 3E4A     		ldr	r2, .L12+68
 101 0068 1360     		str	r3, [r2]
 199:.\Generated_Source\PSoC4/ADC_SAR_Seq.c ****     ADC_SAR_Seq_SAR_INTR_MASK_REG = ADC_SAR_Seq_SAR_INTR_MASK;
 102              		.loc 1 199 0 discriminator 4
 103 006a 0133     		add	r3, r3, #1
 104 006c 3D4A     		ldr	r2, .L12+72
 105 006e 1360     		str	r3, [r2]
 200:.\Generated_Source\PSoC4/ADC_SAR_Seq.c **** 
 201:.\Generated_Source\PSoC4/ADC_SAR_Seq.c ****     #if(ADC_SAR_Seq_CY_SAR_IP_VER == ADC_SAR_Seq_CY_SAR_IP_VER0)
 202:.\Generated_Source\PSoC4/ADC_SAR_Seq.c ****         ADC_SAR_Seq_ANA_TRIM_REG = ADC_SAR_Seq_TRIM_COEF;
 106              		.loc 1 202 0 discriminator 4
 107 0070 0221     		mov	r1, #2
 108 0072 3D4A     		ldr	r2, .L12+76
 109 0074 1160     		str	r1, [r2]
 203:.\Generated_Source\PSoC4/ADC_SAR_Seq.c ****     #endif /* (ADC_SAR_Seq_CY_SAR_IP_VER == ADC_SAR_Seq_CY_SAR_IP_VER0) */
 204:.\Generated_Source\PSoC4/ADC_SAR_Seq.c **** 
 205:.\Generated_Source\PSoC4/ADC_SAR_Seq.c ****     /* Read and modify default configuration based on characterization */
 206:.\Generated_Source\PSoC4/ADC_SAR_Seq.c ****     tmpRegVal = ADC_SAR_Seq_SAR_DFT_CTRL_REG;
 110              		.loc 1 206 0 discriminator 4
 111 0076 3D49     		ldr	r1, .L12+80
 112 0078 0868     		ldr	r0, [r1]
 113              	.LVL2:
 207:.\Generated_Source\PSoC4/ADC_SAR_Seq.c ****     tmpRegVal &= (uint32)~ADC_SAR_Seq_DCEN;
 114              		.loc 1 207 0 discriminator 4
 115 007a 3D4A     		ldr	r2, .L12+84
 116 007c 0240     		and	r2, r0
 117              	.LVL3:
 208:.\Generated_Source\PSoC4/ADC_SAR_Seq.c ****     
 209:.\Generated_Source\PSoC4/ADC_SAR_Seq.c ****     #if(ADC_SAR_Seq_CY_SAR_IP_VER == ADC_SAR_Seq_CY_SAR_IP_VER0)
 210:.\Generated_Source\PSoC4/ADC_SAR_Seq.c ****         #if(ADC_SAR_Seq_NOMINAL_CLOCK_FREQ > (ADC_SAR_Seq_MAX_FREQUENCY / 2))
 211:.\Generated_Source\PSoC4/ADC_SAR_Seq.c ****             tmpRegVal |= ADC_SAR_Seq_SEL_CSEL_DFT_CHAR;
 212:.\Generated_Source\PSoC4/ADC_SAR_Seq.c ****         #else  /* clock speed < 9 Mhz */
 213:.\Generated_Source\PSoC4/ADC_SAR_Seq.c ****             tmpRegVal |= ADC_SAR_Seq_DLY_INC;
 118              		.loc 1 213 0 discriminator 4
 119 007e 1343     		orr	r3, r2
 120              	.LVL4:
 214:.\Generated_Source\PSoC4/ADC_SAR_Seq.c ****         #endif /* clock speed > 9 Mhz */
 215:.\Generated_Source\PSoC4/ADC_SAR_Seq.c ****     #else
 216:.\Generated_Source\PSoC4/ADC_SAR_Seq.c ****         #if ((ADC_SAR_Seq_DEFAULT_VREF_SEL == ADC_SAR_Seq__INTERNAL1024) || \
 217:.\Generated_Source\PSoC4/ADC_SAR_Seq.c ****              (ADC_SAR_Seq_DEFAULT_VREF_SEL == ADC_SAR_Seq__INTERNALVREF))
 218:.\Generated_Source\PSoC4/ADC_SAR_Seq.c ****             tmpRegVal |= ADC_SAR_Seq_DLY_INC;
 219:.\Generated_Source\PSoC4/ADC_SAR_Seq.c ****         #else
 220:.\Generated_Source\PSoC4/ADC_SAR_Seq.c ****             tmpRegVal |= ADC_SAR_Seq_DCEN;
ARM GAS  C:\Users\lenovo\AppData\Local\Temp\ccUb5gf7.s 			page 7


 221:.\Generated_Source\PSoC4/ADC_SAR_Seq.c ****             tmpRegVal &= (uint32)~ADC_SAR_Seq_DLY_INC;
 222:.\Generated_Source\PSoC4/ADC_SAR_Seq.c ****         #endif /* ((ADC_SAR_Seq_DEFAULT_VREF_SEL == ADC_SAR_Seq__INTERNAL1024) || \
 223:.\Generated_Source\PSoC4/ADC_SAR_Seq.c ****                    (ADC_SAR_Seq_DEFAULT_VREF_SEL == ADC_SAR_Seq__INTERNALVREF)) */
 224:.\Generated_Source\PSoC4/ADC_SAR_Seq.c ****     #endif /* (ADC_SAR_Seq_CY_SAR_IP_VER == ADC_SAR_Seq_CY_SAR_IP_VER0) */
 225:.\Generated_Source\PSoC4/ADC_SAR_Seq.c ****     
 226:.\Generated_Source\PSoC4/ADC_SAR_Seq.c ****     ADC_SAR_Seq_SAR_DFT_CTRL_REG = tmpRegVal;
 121              		.loc 1 226 0 discriminator 4
 122 0080 0B60     		str	r3, [r1]
 123              	.LVL5:
 227:.\Generated_Source\PSoC4/ADC_SAR_Seq.c **** 
 228:.\Generated_Source\PSoC4/ADC_SAR_Seq.c ****     #if(ADC_SAR_Seq_MAX_RESOLUTION != ADC_SAR_Seq_RESOLUTION_12)
 229:.\Generated_Source\PSoC4/ADC_SAR_Seq.c ****         ADC_SAR_Seq_WOUNDING_REG = ADC_SAR_Seq_ALT_WOUNDING;
 230:.\Generated_Source\PSoC4/ADC_SAR_Seq.c ****     #endif /* ADC_SAR_Seq_MAX_RESOLUTION != ADC_SAR_Seq_RESOLUTION_12 */
 231:.\Generated_Source\PSoC4/ADC_SAR_Seq.c **** 
 232:.\Generated_Source\PSoC4/ADC_SAR_Seq.c ****     for(chNum = 0u; chNum < ADC_SAR_Seq_TOTAL_CHANNELS_NUM; chNum++)
 124              		.loc 1 232 0 discriminator 4
 125 0082 0024     		mov	r4, #0
 126 0084 47E0     		b	.L3
 127              	.LVL6:
 128              	.L9:
 233:.\Generated_Source\PSoC4/ADC_SAR_Seq.c ****     {
 234:.\Generated_Source\PSoC4/ADC_SAR_Seq.c ****         tmpRegVal = (ADC_SAR_Seq_channelsConfig[chNum] & ADC_SAR_Seq_CHANNEL_CONFIG_MASK);
 129              		.loc 1 234 0
 130 0086 3B49     		ldr	r1, .L12+88
 131 0088 A200     		lsl	r2, r4, #2
 132 008a 5058     		ldr	r0, [r2, r1]
 133 008c DC23     		mov	r3, #220
 134 008e 9B01     		lsl	r3, r3, #6
 135 0090 0340     		and	r3, r0
 136              	.LVL7:
 235:.\Generated_Source\PSoC4/ADC_SAR_Seq.c ****         #if(ADC_SAR_Seq_TOTAL_CHANNELS_NUM > 1u)
 236:.\Generated_Source\PSoC4/ADC_SAR_Seq.c ****             tmpRegVal |= ADC_SAR_Seq_InputsPlacement[chNum];
 137              		.loc 1 236 0
 138 0092 0919     		add	r1, r1, r4
 139 0094 097A     		ldrb	r1, [r1, #8]
 140 0096 0B43     		orr	r3, r1
 141              	.LVL8:
 237:.\Generated_Source\PSoC4/ADC_SAR_Seq.c ****         #endif /* End ADC_SAR_Seq_TOTAL_CHANNELS_NUM > 1u */
 238:.\Generated_Source\PSoC4/ADC_SAR_Seq.c ****         
 239:.\Generated_Source\PSoC4/ADC_SAR_Seq.c ****         
 240:.\Generated_Source\PSoC4/ADC_SAR_Seq.c ****         /* When the part is limited to 10-bit then the SUB_RESOLUTION bit
 241:.\Generated_Source\PSoC4/ADC_SAR_Seq.c ****         *  will be ignored and the RESOLUTION bit selects between 10-bit
 242:.\Generated_Source\PSoC4/ADC_SAR_Seq.c ****         *  (0) and 8-bit (1) resolution.
 243:.\Generated_Source\PSoC4/ADC_SAR_Seq.c ****         */
 244:.\Generated_Source\PSoC4/ADC_SAR_Seq.c ****         #if((ADC_SAR_Seq_MAX_RESOLUTION != ADC_SAR_Seq_RESOLUTION_12) && \
 245:.\Generated_Source\PSoC4/ADC_SAR_Seq.c ****             (ADC_SAR_Seq_ALT_WOUNDING == ADC_SAR_Seq_WOUNDING_10BIT))
 246:.\Generated_Source\PSoC4/ADC_SAR_Seq.c ****             tmpRegVal &= (uint32)(~ADC_SAR_Seq_ALT_RESOLUTION_ON);
 247:.\Generated_Source\PSoC4/ADC_SAR_Seq.c ****         #endif /* ADC_SAR_Seq_MAX_RESOLUTION != ADC_SAR_Seq_RESOLUTION_12 */
 248:.\Generated_Source\PSoC4/ADC_SAR_Seq.c **** 
 249:.\Generated_Source\PSoC4/ADC_SAR_Seq.c ****         #if(ADC_SAR_Seq_INJ_CHANNEL_ENABLED)
 250:.\Generated_Source\PSoC4/ADC_SAR_Seq.c ****         if(chNum < ADC_SAR_Seq_SEQUENCED_CHANNELS_NUM)
 251:.\Generated_Source\PSoC4/ADC_SAR_Seq.c ****         #endif /* ADC_SAR_Seq_INJ_CHANNEL_ENABLED */
 252:.\Generated_Source\PSoC4/ADC_SAR_Seq.c ****         {
 253:.\Generated_Source\PSoC4/ADC_SAR_Seq.c ****             CY_SET_REG32((reg32 *)(ADC_SAR_Seq_SAR_CHAN_CONFIG_IND + (uint32)(chNum << 2)), tmpRegV
 142              		.loc 1 253 0
 143 0098 3749     		ldr	r1, .L12+92
 144 009a 8C46     		mov	ip, r1
ARM GAS  C:\Users\lenovo\AppData\Local\Temp\ccUb5gf7.s 			page 8


 145 009c 6244     		add	r2, r2, ip
 146 009e 1360     		str	r3, [r2]
 254:.\Generated_Source\PSoC4/ADC_SAR_Seq.c **** 
 255:.\Generated_Source\PSoC4/ADC_SAR_Seq.c ****             if((ADC_SAR_Seq_channelsConfig[chNum] & ADC_SAR_Seq_IS_SATURATE_EN_MASK) != 0u)
 147              		.loc 1 255 0
 148 00a0 C307     		lsl	r3, r0, #31
 149 00a2 08D5     		bpl	.L4
 150              	.LVL9:
 256:.\Generated_Source\PSoC4/ADC_SAR_Seq.c ****             {
 257:.\Generated_Source\PSoC4/ADC_SAR_Seq.c ****                 ADC_SAR_Seq_SAR_SATURATE_INTR_MASK_REG |= (uint16)((uint16)1 << chNum);
 151              		.loc 1 257 0
 152 00a4 2D49     		ldr	r1, .L12+64
 153 00a6 0868     		ldr	r0, [r1]
 154 00a8 8022     		mov	r2, #128
 155              	.LVL10:
 156 00aa 5202     		lsl	r2, r2, #9
 157 00ac 131C     		mov	r3, r2
 158 00ae A340     		lsl	r3, r3, r4
 159 00b0 1B0C     		lsr	r3, r3, #16
 160 00b2 0343     		orr	r3, r0
 161 00b4 0B60     		str	r3, [r1]
 162              	.LVL11:
 163              	.L4:
 258:.\Generated_Source\PSoC4/ADC_SAR_Seq.c ****             }
 259:.\Generated_Source\PSoC4/ADC_SAR_Seq.c **** 
 260:.\Generated_Source\PSoC4/ADC_SAR_Seq.c ****             if((ADC_SAR_Seq_channelsConfig[chNum] & ADC_SAR_Seq_IS_RANGE_CTRL_EN_MASK) != 0u)
 164              		.loc 1 260 0
 165 00b6 A300     		lsl	r3, r4, #2
 166 00b8 2E4A     		ldr	r2, .L12+88
 167              	.LVL12:
 168 00ba 9B58     		ldr	r3, [r3, r2]
 169 00bc 9B07     		lsl	r3, r3, #30
 170 00be 08D5     		bpl	.L5
 261:.\Generated_Source\PSoC4/ADC_SAR_Seq.c ****             {
 262:.\Generated_Source\PSoC4/ADC_SAR_Seq.c ****                 ADC_SAR_Seq_SAR_RANGE_INTR_MASK_REG |= (uint16)((uint16)1 << chNum);
 171              		.loc 1 262 0
 172 00c0 2749     		ldr	r1, .L12+68
 173 00c2 0868     		ldr	r0, [r1]
 174 00c4 8022     		mov	r2, #128
 175              	.LVL13:
 176 00c6 5202     		lsl	r2, r2, #9
 177 00c8 131C     		mov	r3, r2
 178 00ca A340     		lsl	r3, r3, r4
 179 00cc 1B0C     		lsr	r3, r3, #16
 180 00ce 0343     		orr	r3, r0
 181 00d0 0B60     		str	r3, [r1]
 182              	.L5:
 263:.\Generated_Source\PSoC4/ADC_SAR_Seq.c ****             }
 264:.\Generated_Source\PSoC4/ADC_SAR_Seq.c ****         }
 265:.\Generated_Source\PSoC4/ADC_SAR_Seq.c ****         #if(ADC_SAR_Seq_INJ_CHANNEL_ENABLED)
 266:.\Generated_Source\PSoC4/ADC_SAR_Seq.c ****             else
 267:.\Generated_Source\PSoC4/ADC_SAR_Seq.c ****             {
 268:.\Generated_Source\PSoC4/ADC_SAR_Seq.c ****                 CY_SET_REG32(ADC_SAR_Seq_SAR_INJ_CHAN_CONFIG_PTR, tmpRegVal | ADC_SAR_Seq_INJ_TAILG
 269:.\Generated_Source\PSoC4/ADC_SAR_Seq.c **** 
 270:.\Generated_Source\PSoC4/ADC_SAR_Seq.c ****                 if((ADC_SAR_Seq_channelsConfig[chNum] & ADC_SAR_Seq_IS_SATURATE_EN_MASK) != 0u)
 271:.\Generated_Source\PSoC4/ADC_SAR_Seq.c ****                 {
 272:.\Generated_Source\PSoC4/ADC_SAR_Seq.c ****                     ADC_SAR_Seq_SAR_INTR_MASK_REG |= ADC_SAR_Seq_INJ_SATURATE_MASK;
ARM GAS  C:\Users\lenovo\AppData\Local\Temp\ccUb5gf7.s 			page 9


 273:.\Generated_Source\PSoC4/ADC_SAR_Seq.c ****                 }
 274:.\Generated_Source\PSoC4/ADC_SAR_Seq.c **** 
 275:.\Generated_Source\PSoC4/ADC_SAR_Seq.c ****                 if((ADC_SAR_Seq_channelsConfig[chNum] & ADC_SAR_Seq_IS_RANGE_CTRL_EN_MASK) != 0u)
 276:.\Generated_Source\PSoC4/ADC_SAR_Seq.c ****                 {
 277:.\Generated_Source\PSoC4/ADC_SAR_Seq.c ****                     ADC_SAR_Seq_SAR_INTR_MASK_REG |= ADC_SAR_Seq_INJ_RANGE_MASK;
 278:.\Generated_Source\PSoC4/ADC_SAR_Seq.c ****                 }
 279:.\Generated_Source\PSoC4/ADC_SAR_Seq.c ****             }
 280:.\Generated_Source\PSoC4/ADC_SAR_Seq.c ****         #endif /* ADC_SAR_Seq_INJ_CHANNEL_ENABLED */
 281:.\Generated_Source\PSoC4/ADC_SAR_Seq.c **** 
 282:.\Generated_Source\PSoC4/ADC_SAR_Seq.c ****         if((ADC_SAR_Seq_channelsConfig[chNum] & ADC_SAR_Seq_ALT_RESOLUTION_ON) != 0u)
 183              		.loc 1 282 0
 184 00d2 A300     		lsl	r3, r4, #2
 185 00d4 274A     		ldr	r2, .L12+88
 186              	.LVL14:
 187 00d6 9B58     		ldr	r3, [r3, r2]
 188 00d8 9A05     		lsl	r2, r3, #22
 189 00da 02D5     		bpl	.L11
 190              	.LVL15:
 283:.\Generated_Source\PSoC4/ADC_SAR_Seq.c ****         {
 284:.\Generated_Source\PSoC4/ADC_SAR_Seq.c ****                counts = (int32)ADC_SAR_Seq_DEFAULT_MAX_WRK_ALT;
 191              		.loc 1 284 0
 192 00dc 8020     		mov	r0, #128
 193 00de C000     		lsl	r0, r0, #3
 194 00e0 01E0     		b	.L6
 195              	.L11:
 285:.\Generated_Source\PSoC4/ADC_SAR_Seq.c ****         }
 286:.\Generated_Source\PSoC4/ADC_SAR_Seq.c ****         else
 287:.\Generated_Source\PSoC4/ADC_SAR_Seq.c ****         {
 288:.\Generated_Source\PSoC4/ADC_SAR_Seq.c ****                counts = (int32)ADC_SAR_Seq_SAR_WRK_MAX_12BIT;
 196              		.loc 1 288 0
 197 00e2 8020     		mov	r0, #128
 198 00e4 4001     		lsl	r0, r0, #5
 199              	.L6:
 200              	.LVL16:
 289:.\Generated_Source\PSoC4/ADC_SAR_Seq.c ****         }
 290:.\Generated_Source\PSoC4/ADC_SAR_Seq.c **** 
 291:.\Generated_Source\PSoC4/ADC_SAR_Seq.c ****         if((ADC_SAR_Seq_channelsConfig[chNum] & ADC_SAR_Seq_DIFFERENTIAL_EN) == 0u)
 201              		.loc 1 291 0
 202 00e6 DB05     		lsl	r3, r3, #23
 203 00e8 04D4     		bmi	.L7
 292:.\Generated_Source\PSoC4/ADC_SAR_Seq.c ****         {
 293:.\Generated_Source\PSoC4/ADC_SAR_Seq.c ****             #if((ADC_SAR_Seq_DEFAULT_SE_RESULT_FORMAT_SEL == ADC_SAR_Seq__FSIGNED) && \
 294:.\Generated_Source\PSoC4/ADC_SAR_Seq.c ****                 (ADC_SAR_Seq_DEFAULT_NEG_INPUT_SEL == ADC_SAR_Seq__VREF))
 295:.\Generated_Source\PSoC4/ADC_SAR_Seq.c ****                 /* Set offset to the minus half scale to convert results to unsigned format */
 296:.\Generated_Source\PSoC4/ADC_SAR_Seq.c ****                 ADC_SAR_Seq_offset[chNum] = (int16)(counts / -2);
 297:.\Generated_Source\PSoC4/ADC_SAR_Seq.c ****             #else
 298:.\Generated_Source\PSoC4/ADC_SAR_Seq.c ****                 ADC_SAR_Seq_offset[chNum] = 0;
 204              		.loc 1 298 0
 205 00ea 6300     		lsl	r3, r4, #1
 206 00ec 0021     		mov	r1, #0
 207 00ee 234A     		ldr	r2, .L12+96
 208 00f0 9952     		strh	r1, [r3, r2]
 209 00f2 03E0     		b	.L8
 210              	.L7:
 299:.\Generated_Source\PSoC4/ADC_SAR_Seq.c ****             #endif /* end DEFAULT_SE_RESULT_FORMAT_SEL == ADC_SAR_Seq__FSIGNED */
 300:.\Generated_Source\PSoC4/ADC_SAR_Seq.c ****         }
 301:.\Generated_Source\PSoC4/ADC_SAR_Seq.c ****         else    /* Differential channel */
ARM GAS  C:\Users\lenovo\AppData\Local\Temp\ccUb5gf7.s 			page 10


 302:.\Generated_Source\PSoC4/ADC_SAR_Seq.c ****         {
 303:.\Generated_Source\PSoC4/ADC_SAR_Seq.c ****             #if(ADC_SAR_Seq_DEFAULT_DIFF_RESULT_FORMAT_SEL == ADC_SAR_Seq__FUNSIGNED)
 304:.\Generated_Source\PSoC4/ADC_SAR_Seq.c ****                 /* Set offset to the half scale to convert results to signed format */
 305:.\Generated_Source\PSoC4/ADC_SAR_Seq.c ****                 ADC_SAR_Seq_offset[chNum] = (int16)(counts / 2);
 306:.\Generated_Source\PSoC4/ADC_SAR_Seq.c ****             #else
 307:.\Generated_Source\PSoC4/ADC_SAR_Seq.c ****                 ADC_SAR_Seq_offset[chNum] = 0;
 211              		.loc 1 307 0
 212 00f4 6300     		lsl	r3, r4, #1
 213 00f6 0021     		mov	r1, #0
 214 00f8 204A     		ldr	r2, .L12+96
 215 00fa 9952     		strh	r1, [r3, r2]
 216              	.L8:
 308:.\Generated_Source\PSoC4/ADC_SAR_Seq.c ****             #endif /* end ADC_SAR_Seq_DEFAULT_DIFF_RESULT_FORMAT_SEL == ADC_SAR_Seq__FUNSIGNED */
 309:.\Generated_Source\PSoC4/ADC_SAR_Seq.c ****         }
 310:.\Generated_Source\PSoC4/ADC_SAR_Seq.c ****         /* Calculate gain in counts per 10 volts with rounding */
 311:.\Generated_Source\PSoC4/ADC_SAR_Seq.c ****         ADC_SAR_Seq_countsPer10Volt[chNum] = (int16)(((counts * ADC_SAR_Seq_10MV_COUNTS) +
 217              		.loc 1 311 0 discriminator 2
 218 00fc 204B     		ldr	r3, .L12+100
 219 00fe 5843     		mul	r0, r3
 220              	.LVL17:
 221 0100 204B     		ldr	r3, .L12+104
 222 0102 9C46     		mov	ip, r3
 223 0104 6044     		add	r0, r0, ip
 312:.\Generated_Source\PSoC4/ADC_SAR_Seq.c ****                             ADC_SAR_Seq_DEFAULT_VREF_MV_VALUE) / (ADC_SAR_Seq_DEFAULT_VREF_MV_VALUE
 224              		.loc 1 312 0 discriminator 2
 225 0106 2049     		ldr	r1, .L12+108
 226 0108 FFF7FEFF 		bl	__aeabi_idiv
 227              	.LVL18:
 311:.\Generated_Source\PSoC4/ADC_SAR_Seq.c ****                             ADC_SAR_Seq_DEFAULT_VREF_MV_VALUE) / (ADC_SAR_Seq_DEFAULT_VREF_MV_VALUE
 228              		.loc 1 311 0 discriminator 2
 229 010c 00B2     		sxth	r0, r0
 230 010e A200     		lsl	r2, r4, #2
 231 0110 1E4B     		ldr	r3, .L12+112
 232 0112 D050     		str	r0, [r2, r3]
 232:.\Generated_Source\PSoC4/ADC_SAR_Seq.c ****     {
 233              		.loc 1 232 0 discriminator 2
 234 0114 0134     		add	r4, r4, #1
 235              	.LVL19:
 236              	.L3:
 232:.\Generated_Source\PSoC4/ADC_SAR_Seq.c ****     {
 237              		.loc 1 232 0 is_stmt 0 discriminator 1
 238 0116 012C     		cmp	r4, #1
 239 0118 B5D9     		bls	.L9
 313:.\Generated_Source\PSoC4/ADC_SAR_Seq.c ****     }
 314:.\Generated_Source\PSoC4/ADC_SAR_Seq.c **** }
 240              		.loc 1 314 0 is_stmt 1
 241              		@ sp needed
 242              	.LVL20:
 243 011a 10BD     		pop	{r4, pc}
 244              	.L13:
 245              		.align	2
 246              	.L12:
 247 011c 00000000 		.word	ADC_SAR_Seq_ISR
 248 0120 20001A40 		.word	1075445792
 249 0124 80031A40 		.word	1075446656
 250 0128 70201013 		.word	319823984
 251 012c 70200013 		.word	318775408
ARM GAS  C:\Users\lenovo\AppData\Local\Temp\ccUb5gf7.s 			page 11


 252 0130 00001A40 		.word	1075445760
 253 0134 AD000080 		.word	-2147483475
 254 0138 04001A40 		.word	1075445764
 255 013c 0000FF0F 		.word	268369920
 256 0140 18001A40 		.word	1075445784
 257 0144 1C001A40 		.word	1075445788
 258 0148 02000200 		.word	131074
 259 014c 10001A40 		.word	1075445776
 260 0150 14001A40 		.word	1075445780
 261 0154 00031A40 		.word	1075446528
 262 0158 40031A40 		.word	1075446592
 263 015c 28021A40 		.word	1075446312
 264 0160 38021A40 		.word	1075446328
 265 0164 18021A40 		.word	1075446296
 266 0168 000F1A40 		.word	1075449600
 267 016c 30001A40 		.word	1075445808
 268 0170 FFFFFFDF 		.word	-536870913
 269 0174 00000000 		.word	.LANCHOR0
 270 0178 80001A40 		.word	1075445888
 271 017c 00000000 		.word	ADC_SAR_Seq_offset
 272 0180 10270000 		.word	10000
 273 0184 E40C0000 		.word	3300
 274 0188 C8190000 		.word	6600
 275 018c 00000000 		.word	ADC_SAR_Seq_countsPer10Volt
 276              		.cfi_endproc
 277              	.LFE1:
 278              		.size	ADC_SAR_Seq_Init, .-ADC_SAR_Seq_Init
 279              		.section	.text.ADC_SAR_Seq_Enable,"ax",%progbits
 280              		.align	2
 281              		.global	ADC_SAR_Seq_Enable
 282              		.code	16
 283              		.thumb_func
 284              		.type	ADC_SAR_Seq_Enable, %function
 285              	ADC_SAR_Seq_Enable:
 286              	.LFB2:
 315:.\Generated_Source\PSoC4/ADC_SAR_Seq.c **** 
 316:.\Generated_Source\PSoC4/ADC_SAR_Seq.c **** /*******************************************************************************
 317:.\Generated_Source\PSoC4/ADC_SAR_Seq.c **** * Function Name: ADC_SAR_1_Enable
 318:.\Generated_Source\PSoC4/ADC_SAR_Seq.c **** ********************************************************************************
 319:.\Generated_Source\PSoC4/ADC_SAR_Seq.c **** *
 320:.\Generated_Source\PSoC4/ADC_SAR_Seq.c **** * Summary:
 321:.\Generated_Source\PSoC4/ADC_SAR_Seq.c **** *  Enables the clock and analog power for SAR ADC.
 322:.\Generated_Source\PSoC4/ADC_SAR_Seq.c **** *
 323:.\Generated_Source\PSoC4/ADC_SAR_Seq.c **** * Parameters:
 324:.\Generated_Source\PSoC4/ADC_SAR_Seq.c **** *  None.
 325:.\Generated_Source\PSoC4/ADC_SAR_Seq.c **** *
 326:.\Generated_Source\PSoC4/ADC_SAR_Seq.c **** * Return:
 327:.\Generated_Source\PSoC4/ADC_SAR_Seq.c **** *  None.
 328:.\Generated_Source\PSoC4/ADC_SAR_Seq.c **** *
 329:.\Generated_Source\PSoC4/ADC_SAR_Seq.c **** *******************************************************************************/
 330:.\Generated_Source\PSoC4/ADC_SAR_Seq.c **** void ADC_SAR_Seq_Enable(void)
 331:.\Generated_Source\PSoC4/ADC_SAR_Seq.c **** {
 287              		.loc 1 331 0
 288              		.cfi_startproc
 289 0000 08B5     		push	{r3, lr}
 290              		.cfi_def_cfa_offset 8
 291              		.cfi_offset 3, -8
ARM GAS  C:\Users\lenovo\AppData\Local\Temp\ccUb5gf7.s 			page 12


 292              		.cfi_offset 14, -4
 332:.\Generated_Source\PSoC4/ADC_SAR_Seq.c ****     if (0u == (ADC_SAR_Seq_SAR_CTRL_REG & ADC_SAR_Seq_ENABLE))
 293              		.loc 1 332 0
 294 0002 074B     		ldr	r3, .L16
 295 0004 1B68     		ldr	r3, [r3]
 296 0006 002B     		cmp	r3, #0
 297 0008 08DB     		blt	.L14
 333:.\Generated_Source\PSoC4/ADC_SAR_Seq.c ****     {
 334:.\Generated_Source\PSoC4/ADC_SAR_Seq.c ****         #if(ADC_SAR_Seq_CY_SAR_IP_VER != ADC_SAR_Seq_CY_SAR_IP_VER0)
 335:.\Generated_Source\PSoC4/ADC_SAR_Seq.c **** 
 336:.\Generated_Source\PSoC4/ADC_SAR_Seq.c ****             while (0u != (ADC_SAR_Seq_SAR_STATUS_REG & ADC_SAR_Seq_STATUS_BUSY))
 337:.\Generated_Source\PSoC4/ADC_SAR_Seq.c ****             {
 338:.\Generated_Source\PSoC4/ADC_SAR_Seq.c ****                 /* wait for SAR to go idle to avoid deadlock */
 339:.\Generated_Source\PSoC4/ADC_SAR_Seq.c ****             }
 340:.\Generated_Source\PSoC4/ADC_SAR_Seq.c ****         #endif /* (ADC_SAR_Seq_CY_SAR_IP_VER != ADC_SAR_Seq_CY_SAR_IP_VER0) */
 341:.\Generated_Source\PSoC4/ADC_SAR_Seq.c ****         
 342:.\Generated_Source\PSoC4/ADC_SAR_Seq.c ****         ADC_SAR_Seq_SAR_CTRL_REG |= ADC_SAR_Seq_ENABLE;
 298              		.loc 1 342 0
 299 000a 054A     		ldr	r2, .L16
 300 000c 1368     		ldr	r3, [r2]
 301 000e 8021     		mov	r1, #128
 302 0010 0906     		lsl	r1, r1, #24
 303 0012 0B43     		orr	r3, r1
 304 0014 1360     		str	r3, [r2]
 343:.\Generated_Source\PSoC4/ADC_SAR_Seq.c ****         
 344:.\Generated_Source\PSoC4/ADC_SAR_Seq.c ****         /* The block is ready to use 10 us after the enable signal is set high. */
 345:.\Generated_Source\PSoC4/ADC_SAR_Seq.c ****         CyDelayUs(ADC_SAR_Seq_10US_DELAY);         
 305              		.loc 1 345 0
 306 0016 0A20     		mov	r0, #10
 307 0018 FFF7FEFF 		bl	CyDelayUs
 308              	.LVL21:
 309              	.L14:
 346:.\Generated_Source\PSoC4/ADC_SAR_Seq.c ****     }
 347:.\Generated_Source\PSoC4/ADC_SAR_Seq.c **** }
 310              		.loc 1 347 0
 311              		@ sp needed
 312 001c 08BD     		pop	{r3, pc}
 313              	.L17:
 314 001e C046     		.align	2
 315              	.L16:
 316 0020 00001A40 		.word	1075445760
 317              		.cfi_endproc
 318              	.LFE2:
 319              		.size	ADC_SAR_Seq_Enable, .-ADC_SAR_Seq_Enable
 320              		.section	.text.ADC_SAR_Seq_Start,"ax",%progbits
 321              		.align	2
 322              		.global	ADC_SAR_Seq_Start
 323              		.code	16
 324              		.thumb_func
 325              		.type	ADC_SAR_Seq_Start, %function
 326              	ADC_SAR_Seq_Start:
 327              	.LFB0:
  64:.\Generated_Source\PSoC4/ADC_SAR_Seq.c ****     /* If not Initialized then initialize all required hardware and software */
 328              		.loc 1 64 0
 329              		.cfi_startproc
 330 0000 08B5     		push	{r3, lr}
 331              		.cfi_def_cfa_offset 8
ARM GAS  C:\Users\lenovo\AppData\Local\Temp\ccUb5gf7.s 			page 13


 332              		.cfi_offset 3, -8
 333              		.cfi_offset 14, -4
  66:.\Generated_Source\PSoC4/ADC_SAR_Seq.c ****     {
 334              		.loc 1 66 0
 335 0002 064B     		ldr	r3, .L20
 336 0004 1B78     		ldrb	r3, [r3]
 337 0006 002B     		cmp	r3, #0
 338 0008 04D1     		bne	.L19
  68:.\Generated_Source\PSoC4/ADC_SAR_Seq.c ****         ADC_SAR_Seq_initVar = 1u;
 339              		.loc 1 68 0
 340 000a FFF7FEFF 		bl	ADC_SAR_Seq_Init
 341              	.LVL22:
  69:.\Generated_Source\PSoC4/ADC_SAR_Seq.c ****     }
 342              		.loc 1 69 0
 343 000e 0122     		mov	r2, #1
 344 0010 024B     		ldr	r3, .L20
 345 0012 1A70     		strb	r2, [r3]
 346              	.L19:
  71:.\Generated_Source\PSoC4/ADC_SAR_Seq.c **** }
 347              		.loc 1 71 0
 348 0014 FFF7FEFF 		bl	ADC_SAR_Seq_Enable
 349              	.LVL23:
  72:.\Generated_Source\PSoC4/ADC_SAR_Seq.c **** 
 350              		.loc 1 72 0
 351              		@ sp needed
 352 0018 08BD     		pop	{r3, pc}
 353              	.L21:
 354 001a C046     		.align	2
 355              	.L20:
 356 001c 00000000 		.word	.LANCHOR1
 357              		.cfi_endproc
 358              	.LFE0:
 359              		.size	ADC_SAR_Seq_Start, .-ADC_SAR_Seq_Start
 360              		.section	.text.ADC_SAR_Seq_Stop,"ax",%progbits
 361              		.align	2
 362              		.global	ADC_SAR_Seq_Stop
 363              		.code	16
 364              		.thumb_func
 365              		.type	ADC_SAR_Seq_Stop, %function
 366              	ADC_SAR_Seq_Stop:
 367              	.LFB3:
 348:.\Generated_Source\PSoC4/ADC_SAR_Seq.c **** 
 349:.\Generated_Source\PSoC4/ADC_SAR_Seq.c **** 
 350:.\Generated_Source\PSoC4/ADC_SAR_Seq.c **** /*******************************************************************************
 351:.\Generated_Source\PSoC4/ADC_SAR_Seq.c **** * Function Name: ADC_SAR_Seq_Stop
 352:.\Generated_Source\PSoC4/ADC_SAR_Seq.c **** ********************************************************************************
 353:.\Generated_Source\PSoC4/ADC_SAR_Seq.c **** *
 354:.\Generated_Source\PSoC4/ADC_SAR_Seq.c **** * Summary:
 355:.\Generated_Source\PSoC4/ADC_SAR_Seq.c **** *  This function stops ADC conversions and puts the ADC into its lowest power
 356:.\Generated_Source\PSoC4/ADC_SAR_Seq.c **** *  mode.
 357:.\Generated_Source\PSoC4/ADC_SAR_Seq.c **** *
 358:.\Generated_Source\PSoC4/ADC_SAR_Seq.c **** * Parameters:
 359:.\Generated_Source\PSoC4/ADC_SAR_Seq.c **** *  None.
 360:.\Generated_Source\PSoC4/ADC_SAR_Seq.c **** *
 361:.\Generated_Source\PSoC4/ADC_SAR_Seq.c **** * Return:
 362:.\Generated_Source\PSoC4/ADC_SAR_Seq.c **** *  None.
 363:.\Generated_Source\PSoC4/ADC_SAR_Seq.c **** *
ARM GAS  C:\Users\lenovo\AppData\Local\Temp\ccUb5gf7.s 			page 14


 364:.\Generated_Source\PSoC4/ADC_SAR_Seq.c **** *******************************************************************************/
 365:.\Generated_Source\PSoC4/ADC_SAR_Seq.c **** void ADC_SAR_Seq_Stop(void)
 366:.\Generated_Source\PSoC4/ADC_SAR_Seq.c **** {
 368              		.loc 1 366 0
 369              		.cfi_startproc
 367:.\Generated_Source\PSoC4/ADC_SAR_Seq.c ****     ADC_SAR_Seq_SAR_CTRL_REG &= (uint32)~ADC_SAR_Seq_ENABLE;
 370              		.loc 1 367 0
 371 0000 024A     		ldr	r2, .L23
 372 0002 1368     		ldr	r3, [r2]
 373 0004 5B00     		lsl	r3, r3, #1
 374 0006 5B08     		lsr	r3, r3, #1
 375 0008 1360     		str	r3, [r2]
 368:.\Generated_Source\PSoC4/ADC_SAR_Seq.c **** }
 376              		.loc 1 368 0
 377              		@ sp needed
 378 000a 7047     		bx	lr
 379              	.L24:
 380              		.align	2
 381              	.L23:
 382 000c 00001A40 		.word	1075445760
 383              		.cfi_endproc
 384              	.LFE3:
 385              		.size	ADC_SAR_Seq_Stop, .-ADC_SAR_Seq_Stop
 386              		.section	.text.ADC_SAR_Seq_StartConvert,"ax",%progbits
 387              		.align	2
 388              		.global	ADC_SAR_Seq_StartConvert
 389              		.code	16
 390              		.thumb_func
 391              		.type	ADC_SAR_Seq_StartConvert, %function
 392              	ADC_SAR_Seq_StartConvert:
 393              	.LFB4:
 369:.\Generated_Source\PSoC4/ADC_SAR_Seq.c **** 
 370:.\Generated_Source\PSoC4/ADC_SAR_Seq.c **** 
 371:.\Generated_Source\PSoC4/ADC_SAR_Seq.c **** /*******************************************************************************
 372:.\Generated_Source\PSoC4/ADC_SAR_Seq.c **** * Function Name: ADC_SAR_Seq_StartConvert
 373:.\Generated_Source\PSoC4/ADC_SAR_Seq.c **** ********************************************************************************
 374:.\Generated_Source\PSoC4/ADC_SAR_Seq.c **** *
 375:.\Generated_Source\PSoC4/ADC_SAR_Seq.c **** * Summary:
 376:.\Generated_Source\PSoC4/ADC_SAR_Seq.c **** *  Description:
 377:.\Generated_Source\PSoC4/ADC_SAR_Seq.c **** *  For free running mode, this API starts the conversion process and it
 378:.\Generated_Source\PSoC4/ADC_SAR_Seq.c **** *  runs continuously.
 379:.\Generated_Source\PSoC4/ADC_SAR_Seq.c **** *
 380:.\Generated_Source\PSoC4/ADC_SAR_Seq.c **** *  In a triggered mode, this routine triggers every conversion by
 381:.\Generated_Source\PSoC4/ADC_SAR_Seq.c **** *  writing into the FW_TRIGGER bit in SAR_START_CTRL reg. In triggered mode,
 382:.\Generated_Source\PSoC4/ADC_SAR_Seq.c **** *  every conversion has to start by this API.
 383:.\Generated_Source\PSoC4/ADC_SAR_Seq.c **** *
 384:.\Generated_Source\PSoC4/ADC_SAR_Seq.c **** * Parameters:
 385:.\Generated_Source\PSoC4/ADC_SAR_Seq.c **** *  None.
 386:.\Generated_Source\PSoC4/ADC_SAR_Seq.c **** *
 387:.\Generated_Source\PSoC4/ADC_SAR_Seq.c **** * Return:
 388:.\Generated_Source\PSoC4/ADC_SAR_Seq.c **** *  None.
 389:.\Generated_Source\PSoC4/ADC_SAR_Seq.c **** *
 390:.\Generated_Source\PSoC4/ADC_SAR_Seq.c **** *******************************************************************************/
 391:.\Generated_Source\PSoC4/ADC_SAR_Seq.c **** void ADC_SAR_Seq_StartConvert(void)
 392:.\Generated_Source\PSoC4/ADC_SAR_Seq.c **** {
 394              		.loc 1 392 0
 395              		.cfi_startproc
ARM GAS  C:\Users\lenovo\AppData\Local\Temp\ccUb5gf7.s 			page 15


 393:.\Generated_Source\PSoC4/ADC_SAR_Seq.c ****     #if(ADC_SAR_Seq_DEFAULT_SAMPLE_MODE_SEL == ADC_SAR_Seq__FREERUNNING)
 394:.\Generated_Source\PSoC4/ADC_SAR_Seq.c ****         ADC_SAR_Seq_SAR_SAMPLE_CTRL_REG |= ADC_SAR_Seq_CONTINUOUS_EN;
 396              		.loc 1 394 0
 397 0000 034A     		ldr	r2, .L26
 398 0002 1368     		ldr	r3, [r2]
 399 0004 8021     		mov	r1, #128
 400 0006 4902     		lsl	r1, r1, #9
 401 0008 0B43     		orr	r3, r1
 402 000a 1360     		str	r3, [r2]
 395:.\Generated_Source\PSoC4/ADC_SAR_Seq.c ****     #else /* Firmware trigger */
 396:.\Generated_Source\PSoC4/ADC_SAR_Seq.c ****         ADC_SAR_Seq_SAR_START_CTRL_REG = ADC_SAR_Seq_FW_TRIGGER;
 397:.\Generated_Source\PSoC4/ADC_SAR_Seq.c ****     #endif /* End ADC_SAR_Seq_DEFAULT_SAMPLE_MODE == ADC_SAR_Seq__FREERUNNING */
 398:.\Generated_Source\PSoC4/ADC_SAR_Seq.c **** 
 399:.\Generated_Source\PSoC4/ADC_SAR_Seq.c **** }
 403              		.loc 1 399 0
 404              		@ sp needed
 405 000c 7047     		bx	lr
 406              	.L27:
 407 000e C046     		.align	2
 408              	.L26:
 409 0010 04001A40 		.word	1075445764
 410              		.cfi_endproc
 411              	.LFE4:
 412              		.size	ADC_SAR_Seq_StartConvert, .-ADC_SAR_Seq_StartConvert
 413              		.section	.text.ADC_SAR_Seq_StopConvert,"ax",%progbits
 414              		.align	2
 415              		.global	ADC_SAR_Seq_StopConvert
 416              		.code	16
 417              		.thumb_func
 418              		.type	ADC_SAR_Seq_StopConvert, %function
 419              	ADC_SAR_Seq_StopConvert:
 420              	.LFB5:
 400:.\Generated_Source\PSoC4/ADC_SAR_Seq.c **** 
 401:.\Generated_Source\PSoC4/ADC_SAR_Seq.c **** 
 402:.\Generated_Source\PSoC4/ADC_SAR_Seq.c **** /*******************************************************************************
 403:.\Generated_Source\PSoC4/ADC_SAR_Seq.c **** * Function Name: ADC_SAR_Seq_StopConvert
 404:.\Generated_Source\PSoC4/ADC_SAR_Seq.c **** ********************************************************************************
 405:.\Generated_Source\PSoC4/ADC_SAR_Seq.c **** *
 406:.\Generated_Source\PSoC4/ADC_SAR_Seq.c **** * Summary:
 407:.\Generated_Source\PSoC4/ADC_SAR_Seq.c **** *  Forces the ADC to stop all conversions.
 408:.\Generated_Source\PSoC4/ADC_SAR_Seq.c **** *
 409:.\Generated_Source\PSoC4/ADC_SAR_Seq.c **** * Parameters:
 410:.\Generated_Source\PSoC4/ADC_SAR_Seq.c **** *  None.
 411:.\Generated_Source\PSoC4/ADC_SAR_Seq.c **** *
 412:.\Generated_Source\PSoC4/ADC_SAR_Seq.c **** * Return:
 413:.\Generated_Source\PSoC4/ADC_SAR_Seq.c **** *  None.
 414:.\Generated_Source\PSoC4/ADC_SAR_Seq.c **** *
 415:.\Generated_Source\PSoC4/ADC_SAR_Seq.c **** *******************************************************************************/
 416:.\Generated_Source\PSoC4/ADC_SAR_Seq.c **** void ADC_SAR_Seq_StopConvert(void)
 417:.\Generated_Source\PSoC4/ADC_SAR_Seq.c **** {
 421              		.loc 1 417 0
 422              		.cfi_startproc
 418:.\Generated_Source\PSoC4/ADC_SAR_Seq.c ****     #if(ADC_SAR_Seq_DEFAULT_SAMPLE_MODE_SEL == ADC_SAR_Seq__FREERUNNING)
 419:.\Generated_Source\PSoC4/ADC_SAR_Seq.c ****         ADC_SAR_Seq_SAR_SAMPLE_CTRL_REG &= (uint32)(~ADC_SAR_Seq_CONTINUOUS_EN);
 423              		.loc 1 419 0
 424 0000 024A     		ldr	r2, .L29
 425 0002 1168     		ldr	r1, [r2]
ARM GAS  C:\Users\lenovo\AppData\Local\Temp\ccUb5gf7.s 			page 16


 426 0004 024B     		ldr	r3, .L29+4
 427 0006 0B40     		and	r3, r1
 428 0008 1360     		str	r3, [r2]
 420:.\Generated_Source\PSoC4/ADC_SAR_Seq.c ****     #endif /* ADC_SAR_Seq_DEFAULT_SAMPLE_MODE == ADC_SAR_Seq__FREERUNNING */
 421:.\Generated_Source\PSoC4/ADC_SAR_Seq.c **** }
 429              		.loc 1 421 0
 430              		@ sp needed
 431 000a 7047     		bx	lr
 432              	.L30:
 433              		.align	2
 434              	.L29:
 435 000c 04001A40 		.word	1075445764
 436 0010 FFFFFEFF 		.word	-65537
 437              		.cfi_endproc
 438              	.LFE5:
 439              		.size	ADC_SAR_Seq_StopConvert, .-ADC_SAR_Seq_StopConvert
 440              		.section	.text.ADC_SAR_Seq_IsEndConversion,"ax",%progbits
 441              		.align	2
 442              		.global	ADC_SAR_Seq_IsEndConversion
 443              		.code	16
 444              		.thumb_func
 445              		.type	ADC_SAR_Seq_IsEndConversion, %function
 446              	ADC_SAR_Seq_IsEndConversion:
 447              	.LFB6:
 422:.\Generated_Source\PSoC4/ADC_SAR_Seq.c **** 
 423:.\Generated_Source\PSoC4/ADC_SAR_Seq.c **** 
 424:.\Generated_Source\PSoC4/ADC_SAR_Seq.c **** /*******************************************************************************
 425:.\Generated_Source\PSoC4/ADC_SAR_Seq.c **** * Function Name: ADC_SAR_Seq_IsEndConversion
 426:.\Generated_Source\PSoC4/ADC_SAR_Seq.c **** ********************************************************************************
 427:.\Generated_Source\PSoC4/ADC_SAR_Seq.c **** *
 428:.\Generated_Source\PSoC4/ADC_SAR_Seq.c **** * Summary:
 429:.\Generated_Source\PSoC4/ADC_SAR_Seq.c **** *  Description: Checks for ADC end of conversion for the case one
 430:.\Generated_Source\PSoC4/ADC_SAR_Seq.c **** *  channel and end of scan for the case of multiple channels. It acts
 431:.\Generated_Source\PSoC4/ADC_SAR_Seq.c **** *  as a software version of the EOC. This function provides the
 432:.\Generated_Source\PSoC4/ADC_SAR_Seq.c **** *  programmer with two options. In one mode this function
 433:.\Generated_Source\PSoC4/ADC_SAR_Seq.c **** *  immediately returns with the conversion status. In the other mode,
 434:.\Generated_Source\PSoC4/ADC_SAR_Seq.c **** *  the function does not return (blocking) until the conversion has
 435:.\Generated_Source\PSoC4/ADC_SAR_Seq.c **** *  completed.
 436:.\Generated_Source\PSoC4/ADC_SAR_Seq.c **** *
 437:.\Generated_Source\PSoC4/ADC_SAR_Seq.c **** * Parameters:
 438:.\Generated_Source\PSoC4/ADC_SAR_Seq.c **** *  ADC_RETURN_STATUS        -> Immediately returns conversion result status
 439:.\Generated_Source\PSoC4/ADC_SAR_Seq.c **** *  ADC_WAIT_FOR_RESULT      -> Does not return until ADC complete
 440:.\Generated_Source\PSoC4/ADC_SAR_Seq.c **** *  ADC_RETURN_STATUS_INJ    -> Immediately returns conversion result status
 441:.\Generated_Source\PSoC4/ADC_SAR_Seq.c **** *                              for injection channel
 442:.\Generated_Source\PSoC4/ADC_SAR_Seq.c **** *  ADC_WAIT_FOR_RESULT_INJ  -> Does not return until ADC completes injection
 443:.\Generated_Source\PSoC4/ADC_SAR_Seq.c **** *                              channel conversion
 444:.\Generated_Source\PSoC4/ADC_SAR_Seq.c **** *
 445:.\Generated_Source\PSoC4/ADC_SAR_Seq.c **** * Return:
 446:.\Generated_Source\PSoC4/ADC_SAR_Seq.c **** *  If a non-zero value is returned, the last conversion or scan has completed.
 447:.\Generated_Source\PSoC4/ADC_SAR_Seq.c **** *  If the returned value is zero, the ADC is still in the process of a scan.
 448:.\Generated_Source\PSoC4/ADC_SAR_Seq.c **** *
 449:.\Generated_Source\PSoC4/ADC_SAR_Seq.c **** *******************************************************************************/
 450:.\Generated_Source\PSoC4/ADC_SAR_Seq.c **** uint32 ADC_SAR_Seq_IsEndConversion(uint32 retMode)
 451:.\Generated_Source\PSoC4/ADC_SAR_Seq.c **** {
 448              		.loc 1 451 0
 449              		.cfi_startproc
 450              	.LVL24:
ARM GAS  C:\Users\lenovo\AppData\Local\Temp\ccUb5gf7.s 			page 17


 451 0000 021C     		mov	r2, r0
 452              	.LVL25:
 452:.\Generated_Source\PSoC4/ADC_SAR_Seq.c ****     uint32 status = 0u;
 453:.\Generated_Source\PSoC4/ADC_SAR_Seq.c **** 
 454:.\Generated_Source\PSoC4/ADC_SAR_Seq.c ****     if((retMode & (ADC_SAR_Seq_RETURN_STATUS | ADC_SAR_Seq_WAIT_FOR_RESULT)) != 0u)
 453              		.loc 1 454 0
 454 0002 8307     		lsl	r3, r0, #30
 455 0004 0CD0     		beq	.L35
 456              	.LVL26:
 457              	.L34:
 455:.\Generated_Source\PSoC4/ADC_SAR_Seq.c ****     {
 456:.\Generated_Source\PSoC4/ADC_SAR_Seq.c ****         do
 457:.\Generated_Source\PSoC4/ADC_SAR_Seq.c ****         {
 458:.\Generated_Source\PSoC4/ADC_SAR_Seq.c ****             status = ADC_SAR_Seq_SAR_INTR_REG & ADC_SAR_Seq_EOS_MASK;
 458              		.loc 1 458 0 discriminator 2
 459 0006 074B     		ldr	r3, .L36
 460 0008 1B68     		ldr	r3, [r3]
 461 000a 0120     		mov	r0, #1
 462 000c 1840     		and	r0, r3
 463              	.LVL27:
 459:.\Generated_Source\PSoC4/ADC_SAR_Seq.c ****         }while((status == 0u) && ((retMode & ADC_SAR_Seq_WAIT_FOR_RESULT) != 0u));
 464              		.loc 1 459 0 discriminator 2
 465 000e 01D1     		bne	.L33
 466              		.loc 1 459 0 is_stmt 0 discriminator 1
 467 0010 9307     		lsl	r3, r2, #30
 468 0012 F8D4     		bmi	.L34
 469              	.L33:
 460:.\Generated_Source\PSoC4/ADC_SAR_Seq.c **** 
 461:.\Generated_Source\PSoC4/ADC_SAR_Seq.c ****         if(status != 0u)
 470              		.loc 1 461 0 is_stmt 1
 471 0014 0028     		cmp	r0, #0
 472 0016 04D0     		beq	.L32
 462:.\Generated_Source\PSoC4/ADC_SAR_Seq.c ****         {
 463:.\Generated_Source\PSoC4/ADC_SAR_Seq.c ****             /* Clear EOS bit */
 464:.\Generated_Source\PSoC4/ADC_SAR_Seq.c ****             ADC_SAR_Seq_SAR_INTR_REG = ADC_SAR_Seq_EOS_MASK;
 473              		.loc 1 464 0
 474 0018 0122     		mov	r2, #1
 475              	.LVL28:
 476 001a 024B     		ldr	r3, .L36
 477 001c 1A60     		str	r2, [r3]
 478 001e 00E0     		b	.L32
 479              	.LVL29:
 480              	.L35:
 452:.\Generated_Source\PSoC4/ADC_SAR_Seq.c **** 
 481              		.loc 1 452 0
 482 0020 0020     		mov	r0, #0
 483              	.LVL30:
 484              	.L32:
 465:.\Generated_Source\PSoC4/ADC_SAR_Seq.c ****         }
 466:.\Generated_Source\PSoC4/ADC_SAR_Seq.c ****     }
 467:.\Generated_Source\PSoC4/ADC_SAR_Seq.c **** 
 468:.\Generated_Source\PSoC4/ADC_SAR_Seq.c ****     #if(ADC_SAR_Seq_INJ_CHANNEL_ENABLED)
 469:.\Generated_Source\PSoC4/ADC_SAR_Seq.c ****         if((retMode & (ADC_SAR_Seq_RETURN_STATUS_INJ | ADC_SAR_Seq_WAIT_FOR_RESULT_INJ)) != 0u)
 470:.\Generated_Source\PSoC4/ADC_SAR_Seq.c ****         {
 471:.\Generated_Source\PSoC4/ADC_SAR_Seq.c ****             do
 472:.\Generated_Source\PSoC4/ADC_SAR_Seq.c ****             {
 473:.\Generated_Source\PSoC4/ADC_SAR_Seq.c ****                 status |= ADC_SAR_Seq_SAR_INTR_REG & ADC_SAR_Seq_INJ_EOC_MASK;
ARM GAS  C:\Users\lenovo\AppData\Local\Temp\ccUb5gf7.s 			page 18


 474:.\Generated_Source\PSoC4/ADC_SAR_Seq.c ****             }while(((status & ADC_SAR_Seq_INJ_EOC_MASK) == 0u) &&
 475:.\Generated_Source\PSoC4/ADC_SAR_Seq.c ****                    ((retMode & ADC_SAR_Seq_WAIT_FOR_RESULT_INJ) != 0u));
 476:.\Generated_Source\PSoC4/ADC_SAR_Seq.c **** 
 477:.\Generated_Source\PSoC4/ADC_SAR_Seq.c ****             if((status & ADC_SAR_Seq_INJ_EOC_MASK) != 0u)
 478:.\Generated_Source\PSoC4/ADC_SAR_Seq.c ****             {
 479:.\Generated_Source\PSoC4/ADC_SAR_Seq.c ****                 /* Clear Injection EOS bit */
 480:.\Generated_Source\PSoC4/ADC_SAR_Seq.c ****                 ADC_SAR_Seq_SAR_INTR_REG = ADC_SAR_Seq_INJ_EOC_MASK;
 481:.\Generated_Source\PSoC4/ADC_SAR_Seq.c ****             }
 482:.\Generated_Source\PSoC4/ADC_SAR_Seq.c ****         }
 483:.\Generated_Source\PSoC4/ADC_SAR_Seq.c ****     #endif /* ADC_SAR_Seq_INJ_CHANNEL_ENABLED */
 484:.\Generated_Source\PSoC4/ADC_SAR_Seq.c **** 
 485:.\Generated_Source\PSoC4/ADC_SAR_Seq.c ****     return (status);
 486:.\Generated_Source\PSoC4/ADC_SAR_Seq.c **** }
 485              		.loc 1 486 0
 486              		@ sp needed
 487 0022 7047     		bx	lr
 488              	.L37:
 489              		.align	2
 490              	.L36:
 491 0024 10021A40 		.word	1075446288
 492              		.cfi_endproc
 493              	.LFE6:
 494              		.size	ADC_SAR_Seq_IsEndConversion, .-ADC_SAR_Seq_IsEndConversion
 495              		.section	.text.ADC_SAR_Seq_GetResult16,"ax",%progbits
 496              		.align	2
 497              		.global	ADC_SAR_Seq_GetResult16
 498              		.code	16
 499              		.thumb_func
 500              		.type	ADC_SAR_Seq_GetResult16, %function
 501              	ADC_SAR_Seq_GetResult16:
 502              	.LFB7:
 487:.\Generated_Source\PSoC4/ADC_SAR_Seq.c **** 
 488:.\Generated_Source\PSoC4/ADC_SAR_Seq.c **** 
 489:.\Generated_Source\PSoC4/ADC_SAR_Seq.c **** /*******************************************************************************
 490:.\Generated_Source\PSoC4/ADC_SAR_Seq.c **** * Function Name: ADC_SAR_Seq_GetResult16
 491:.\Generated_Source\PSoC4/ADC_SAR_Seq.c **** ********************************************************************************
 492:.\Generated_Source\PSoC4/ADC_SAR_Seq.c **** *
 493:.\Generated_Source\PSoC4/ADC_SAR_Seq.c **** * Summary:
 494:.\Generated_Source\PSoC4/ADC_SAR_Seq.c **** *  Gets the data available in the SAR DATA register.
 495:.\Generated_Source\PSoC4/ADC_SAR_Seq.c **** *
 496:.\Generated_Source\PSoC4/ADC_SAR_Seq.c **** * Parameters:
 497:.\Generated_Source\PSoC4/ADC_SAR_Seq.c **** *  chan: The ADC channel in which to return the result. The first channel
 498:.\Generated_Source\PSoC4/ADC_SAR_Seq.c **** *  is 0 and the injection channel if enabled is the number of valid channels.
 499:.\Generated_Source\PSoC4/ADC_SAR_Seq.c **** *
 500:.\Generated_Source\PSoC4/ADC_SAR_Seq.c **** * Return:
 501:.\Generated_Source\PSoC4/ADC_SAR_Seq.c **** *  Returns converted data as a signed 16-bit integer
 502:.\Generated_Source\PSoC4/ADC_SAR_Seq.c **** *
 503:.\Generated_Source\PSoC4/ADC_SAR_Seq.c **** *******************************************************************************/
 504:.\Generated_Source\PSoC4/ADC_SAR_Seq.c **** int16 ADC_SAR_Seq_GetResult16(uint32 chan)
 505:.\Generated_Source\PSoC4/ADC_SAR_Seq.c **** {
 503              		.loc 1 505 0
 504              		.cfi_startproc
 505              	.LVL31:
 506 0000 10B5     		push	{r4, lr}
 507              		.cfi_def_cfa_offset 8
 508              		.cfi_offset 4, -8
 509              		.cfi_offset 14, -4
ARM GAS  C:\Users\lenovo\AppData\Local\Temp\ccUb5gf7.s 			page 19


 510 0002 041E     		sub	r4, r0, #0
 506:.\Generated_Source\PSoC4/ADC_SAR_Seq.c ****     uint32 result;
 507:.\Generated_Source\PSoC4/ADC_SAR_Seq.c **** 
 508:.\Generated_Source\PSoC4/ADC_SAR_Seq.c ****     /* Halt CPU in debug mode if channel is out of valid range */
 509:.\Generated_Source\PSoC4/ADC_SAR_Seq.c ****     CYASSERT(chan < ADC_SAR_Seq_TOTAL_CHANNELS_NUM);
 511              		.loc 1 509 0
 512 0004 012C     		cmp	r4, #1
 513 0006 02D9     		bls	.L39
 514              		.loc 1 509 0 is_stmt 0 discriminator 1
 515 0008 0020     		mov	r0, #0
 516              	.LVL32:
 517 000a FFF7FEFF 		bl	CyHalt
 518              	.LVL33:
 519              	.L39:
 510:.\Generated_Source\PSoC4/ADC_SAR_Seq.c **** 
 511:.\Generated_Source\PSoC4/ADC_SAR_Seq.c ****     if(chan < ADC_SAR_Seq_SEQUENCED_CHANNELS_NUM)
 520              		.loc 1 511 0 is_stmt 1
 521 000e 012C     		cmp	r4, #1
 522 0010 07D8     		bhi	.L41
 512:.\Generated_Source\PSoC4/ADC_SAR_Seq.c ****     {
 513:.\Generated_Source\PSoC4/ADC_SAR_Seq.c ****         result = CY_GET_REG32((reg32 *)(ADC_SAR_Seq_SAR_CHAN_RESULT_IND + (uint32)(chan << 2u))) &
 523              		.loc 1 513 0
 524 0012 A400     		lsl	r4, r4, #2
 525              	.LVL34:
 526 0014 044B     		ldr	r3, .L42
 527 0016 9C46     		mov	ip, r3
 528 0018 6444     		add	r4, r4, ip
 529 001a 2068     		ldr	r0, [r4]
 530 001c 0004     		lsl	r0, r0, #16
 531 001e 000C     		lsr	r0, r0, #16
 532              	.LVL35:
 533 0020 00E0     		b	.L40
 534              	.LVL36:
 535              	.L41:
 514:.\Generated_Source\PSoC4/ADC_SAR_Seq.c ****                 ADC_SAR_Seq_RESULT_MASK;
 515:.\Generated_Source\PSoC4/ADC_SAR_Seq.c ****     }
 516:.\Generated_Source\PSoC4/ADC_SAR_Seq.c ****     else
 517:.\Generated_Source\PSoC4/ADC_SAR_Seq.c ****     {
 518:.\Generated_Source\PSoC4/ADC_SAR_Seq.c ****         #if(ADC_SAR_Seq_INJ_CHANNEL_ENABLED)
 519:.\Generated_Source\PSoC4/ADC_SAR_Seq.c ****             result = ADC_SAR_Seq_SAR_INJ_RESULT_REG & ADC_SAR_Seq_RESULT_MASK;
 520:.\Generated_Source\PSoC4/ADC_SAR_Seq.c ****         #else
 521:.\Generated_Source\PSoC4/ADC_SAR_Seq.c ****             result = 0u;
 536              		.loc 1 521 0
 537 0022 0020     		mov	r0, #0
 538              	.LVL37:
 539              	.L40:
 522:.\Generated_Source\PSoC4/ADC_SAR_Seq.c ****         #endif /* ADC_SAR_Seq_INJ_CHANNEL_ENABLED */
 523:.\Generated_Source\PSoC4/ADC_SAR_Seq.c ****     }
 524:.\Generated_Source\PSoC4/ADC_SAR_Seq.c **** 
 525:.\Generated_Source\PSoC4/ADC_SAR_Seq.c ****     return ( (int16)result );
 540              		.loc 1 525 0
 541 0024 00B2     		sxth	r0, r0
 542              	.LVL38:
 526:.\Generated_Source\PSoC4/ADC_SAR_Seq.c **** }
 543              		.loc 1 526 0
 544              		@ sp needed
 545 0026 10BD     		pop	{r4, pc}
ARM GAS  C:\Users\lenovo\AppData\Local\Temp\ccUb5gf7.s 			page 20


 546              	.L43:
 547              		.align	2
 548              	.L42:
 549 0028 80011A40 		.word	1075446144
 550              		.cfi_endproc
 551              	.LFE7:
 552              		.size	ADC_SAR_Seq_GetResult16, .-ADC_SAR_Seq_GetResult16
 553              		.section	.text.ADC_SAR_Seq_SetChanMask,"ax",%progbits
 554              		.align	2
 555              		.global	ADC_SAR_Seq_SetChanMask
 556              		.code	16
 557              		.thumb_func
 558              		.type	ADC_SAR_Seq_SetChanMask, %function
 559              	ADC_SAR_Seq_SetChanMask:
 560              	.LFB8:
 527:.\Generated_Source\PSoC4/ADC_SAR_Seq.c **** 
 528:.\Generated_Source\PSoC4/ADC_SAR_Seq.c **** 
 529:.\Generated_Source\PSoC4/ADC_SAR_Seq.c **** /*******************************************************************************
 530:.\Generated_Source\PSoC4/ADC_SAR_Seq.c **** * Function Name: ADC_SAR_Seq_SetChanMask
 531:.\Generated_Source\PSoC4/ADC_SAR_Seq.c **** ********************************************************************************
 532:.\Generated_Source\PSoC4/ADC_SAR_Seq.c **** *
 533:.\Generated_Source\PSoC4/ADC_SAR_Seq.c **** * Summary:
 534:.\Generated_Source\PSoC4/ADC_SAR_Seq.c **** *  Sets the channel enable mask.
 535:.\Generated_Source\PSoC4/ADC_SAR_Seq.c **** *
 536:.\Generated_Source\PSoC4/ADC_SAR_Seq.c **** * Parameters:
 537:.\Generated_Source\PSoC4/ADC_SAR_Seq.c **** *  mask: Sets which channels that will be
 538:.\Generated_Source\PSoC4/ADC_SAR_Seq.c **** *  scanned. Setting bits for channels that do not exist will have no
 539:.\Generated_Source\PSoC4/ADC_SAR_Seq.c **** *  effect. For example, if only 6 channels were enabled, setting a
 540:.\Generated_Source\PSoC4/ADC_SAR_Seq.c **** *  mask of 0x0103 would only enable the last two channels (0 and 1).
 541:.\Generated_Source\PSoC4/ADC_SAR_Seq.c **** *  This API will not enable the injection channel.
 542:.\Generated_Source\PSoC4/ADC_SAR_Seq.c **** *  Examples: If the component is setup to sequence through 8
 543:.\Generated_Source\PSoC4/ADC_SAR_Seq.c **** *  channels, a mask of 0x000F would enable channels 0, 1, 2, and 3.
 544:.\Generated_Source\PSoC4/ADC_SAR_Seq.c **** *
 545:.\Generated_Source\PSoC4/ADC_SAR_Seq.c **** * Return:
 546:.\Generated_Source\PSoC4/ADC_SAR_Seq.c **** *  None.
 547:.\Generated_Source\PSoC4/ADC_SAR_Seq.c **** *
 548:.\Generated_Source\PSoC4/ADC_SAR_Seq.c **** *******************************************************************************/
 549:.\Generated_Source\PSoC4/ADC_SAR_Seq.c **** void ADC_SAR_Seq_SetChanMask(uint32 mask)
 550:.\Generated_Source\PSoC4/ADC_SAR_Seq.c **** {
 561              		.loc 1 550 0
 562              		.cfi_startproc
 563              	.LVL39:
 551:.\Generated_Source\PSoC4/ADC_SAR_Seq.c ****     ADC_SAR_Seq_SAR_CHAN_EN_REG = mask & ADC_SAR_Seq_MAX_CHANNELS_EN_MASK;
 564              		.loc 1 551 0
 565 0000 0323     		mov	r3, #3
 566 0002 1840     		and	r0, r3
 567              	.LVL40:
 568 0004 014B     		ldr	r3, .L45
 569 0006 1860     		str	r0, [r3]
 552:.\Generated_Source\PSoC4/ADC_SAR_Seq.c **** }
 570              		.loc 1 552 0
 571              		@ sp needed
 572 0008 7047     		bx	lr
 573              	.L46:
 574 000a C046     		.align	2
 575              	.L45:
 576 000c 20001A40 		.word	1075445792
ARM GAS  C:\Users\lenovo\AppData\Local\Temp\ccUb5gf7.s 			page 21


 577              		.cfi_endproc
 578              	.LFE8:
 579              		.size	ADC_SAR_Seq_SetChanMask, .-ADC_SAR_Seq_SetChanMask
 580              		.section	.text.ADC_SAR_Seq_SetLowLimit,"ax",%progbits
 581              		.align	2
 582              		.global	ADC_SAR_Seq_SetLowLimit
 583              		.code	16
 584              		.thumb_func
 585              		.type	ADC_SAR_Seq_SetLowLimit, %function
 586              	ADC_SAR_Seq_SetLowLimit:
 587              	.LFB9:
 553:.\Generated_Source\PSoC4/ADC_SAR_Seq.c **** 
 554:.\Generated_Source\PSoC4/ADC_SAR_Seq.c **** #if(ADC_SAR_Seq_INJ_CHANNEL_ENABLED)
 555:.\Generated_Source\PSoC4/ADC_SAR_Seq.c **** 
 556:.\Generated_Source\PSoC4/ADC_SAR_Seq.c **** 
 557:.\Generated_Source\PSoC4/ADC_SAR_Seq.c ****     /*******************************************************************************
 558:.\Generated_Source\PSoC4/ADC_SAR_Seq.c ****     * Function Name: ADC_SAR_Seq_EnableInjection
 559:.\Generated_Source\PSoC4/ADC_SAR_Seq.c ****     ********************************************************************************
 560:.\Generated_Source\PSoC4/ADC_SAR_Seq.c ****     *
 561:.\Generated_Source\PSoC4/ADC_SAR_Seq.c ****     * Summary:
 562:.\Generated_Source\PSoC4/ADC_SAR_Seq.c ****     *  Enables the injection channel for the next scan only.
 563:.\Generated_Source\PSoC4/ADC_SAR_Seq.c ****     *
 564:.\Generated_Source\PSoC4/ADC_SAR_Seq.c ****     * Parameters:
 565:.\Generated_Source\PSoC4/ADC_SAR_Seq.c ****     *  None.
 566:.\Generated_Source\PSoC4/ADC_SAR_Seq.c ****     *
 567:.\Generated_Source\PSoC4/ADC_SAR_Seq.c ****     * Return:
 568:.\Generated_Source\PSoC4/ADC_SAR_Seq.c ****     *  None.
 569:.\Generated_Source\PSoC4/ADC_SAR_Seq.c ****     *
 570:.\Generated_Source\PSoC4/ADC_SAR_Seq.c ****     *******************************************************************************/
 571:.\Generated_Source\PSoC4/ADC_SAR_Seq.c ****     void ADC_SAR_Seq_EnableInjection(void)
 572:.\Generated_Source\PSoC4/ADC_SAR_Seq.c ****     {
 573:.\Generated_Source\PSoC4/ADC_SAR_Seq.c ****         ADC_SAR_Seq_SAR_INJ_CHAN_CONFIG_REG |= ADC_SAR_Seq_INJ_CHAN_EN;
 574:.\Generated_Source\PSoC4/ADC_SAR_Seq.c ****     }
 575:.\Generated_Source\PSoC4/ADC_SAR_Seq.c **** 
 576:.\Generated_Source\PSoC4/ADC_SAR_Seq.c **** #endif /* ADC_SAR_Seq_INJ_CHANNEL_ENABLED */
 577:.\Generated_Source\PSoC4/ADC_SAR_Seq.c **** 
 578:.\Generated_Source\PSoC4/ADC_SAR_Seq.c **** 
 579:.\Generated_Source\PSoC4/ADC_SAR_Seq.c **** /*******************************************************************************
 580:.\Generated_Source\PSoC4/ADC_SAR_Seq.c **** * Function Name: ADC_SAR_Seq_SetLowLimit
 581:.\Generated_Source\PSoC4/ADC_SAR_Seq.c **** ********************************************************************************
 582:.\Generated_Source\PSoC4/ADC_SAR_Seq.c **** *
 583:.\Generated_Source\PSoC4/ADC_SAR_Seq.c **** * Summary:
 584:.\Generated_Source\PSoC4/ADC_SAR_Seq.c **** *  Sets the low limit parameter for a limit condition.
 585:.\Generated_Source\PSoC4/ADC_SAR_Seq.c **** *
 586:.\Generated_Source\PSoC4/ADC_SAR_Seq.c **** * Parameters:
 587:.\Generated_Source\PSoC4/ADC_SAR_Seq.c **** *  lowLimit: The low limit for a limit condition.
 588:.\Generated_Source\PSoC4/ADC_SAR_Seq.c **** *
 589:.\Generated_Source\PSoC4/ADC_SAR_Seq.c **** * Return:
 590:.\Generated_Source\PSoC4/ADC_SAR_Seq.c **** *  None.
 591:.\Generated_Source\PSoC4/ADC_SAR_Seq.c **** *
 592:.\Generated_Source\PSoC4/ADC_SAR_Seq.c **** *******************************************************************************/
 593:.\Generated_Source\PSoC4/ADC_SAR_Seq.c **** void ADC_SAR_Seq_SetLowLimit(uint32 lowLimit)
 594:.\Generated_Source\PSoC4/ADC_SAR_Seq.c **** {
 588              		.loc 1 594 0
 589              		.cfi_startproc
 590              	.LVL41:
 595:.\Generated_Source\PSoC4/ADC_SAR_Seq.c ****     ADC_SAR_Seq_SAR_RANGE_THRES_REG &= (uint32)(~ADC_SAR_Seq_RANGE_LOW_MASK);
ARM GAS  C:\Users\lenovo\AppData\Local\Temp\ccUb5gf7.s 			page 22


 591              		.loc 1 595 0
 592 0000 054A     		ldr	r2, .L48
 593 0002 1368     		ldr	r3, [r2]
 594 0004 1B0C     		lsr	r3, r3, #16
 595 0006 1B04     		lsl	r3, r3, #16
 596 0008 1360     		str	r3, [r2]
 596:.\Generated_Source\PSoC4/ADC_SAR_Seq.c ****     ADC_SAR_Seq_SAR_RANGE_THRES_REG |= lowLimit & ADC_SAR_Seq_RANGE_LOW_MASK;
 597              		.loc 1 596 0
 598 000a 1368     		ldr	r3, [r2]
 599 000c 0004     		lsl	r0, r0, #16
 600              	.LVL42:
 601 000e 000C     		lsr	r0, r0, #16
 602 0010 1843     		orr	r0, r3
 603 0012 1060     		str	r0, [r2]
 597:.\Generated_Source\PSoC4/ADC_SAR_Seq.c **** }
 604              		.loc 1 597 0
 605              		@ sp needed
 606 0014 7047     		bx	lr
 607              	.L49:
 608 0016 C046     		.align	2
 609              	.L48:
 610 0018 18001A40 		.word	1075445784
 611              		.cfi_endproc
 612              	.LFE9:
 613              		.size	ADC_SAR_Seq_SetLowLimit, .-ADC_SAR_Seq_SetLowLimit
 614              		.section	.text.ADC_SAR_Seq_SetHighLimit,"ax",%progbits
 615              		.align	2
 616              		.global	ADC_SAR_Seq_SetHighLimit
 617              		.code	16
 618              		.thumb_func
 619              		.type	ADC_SAR_Seq_SetHighLimit, %function
 620              	ADC_SAR_Seq_SetHighLimit:
 621              	.LFB10:
 598:.\Generated_Source\PSoC4/ADC_SAR_Seq.c **** 
 599:.\Generated_Source\PSoC4/ADC_SAR_Seq.c **** 
 600:.\Generated_Source\PSoC4/ADC_SAR_Seq.c **** /*******************************************************************************
 601:.\Generated_Source\PSoC4/ADC_SAR_Seq.c **** * Function Name: ADC_SAR_Seq_SetHighLimit
 602:.\Generated_Source\PSoC4/ADC_SAR_Seq.c **** ********************************************************************************
 603:.\Generated_Source\PSoC4/ADC_SAR_Seq.c **** *
 604:.\Generated_Source\PSoC4/ADC_SAR_Seq.c **** * Summary:
 605:.\Generated_Source\PSoC4/ADC_SAR_Seq.c **** *  Sets the low limit parameter for a limit condition.
 606:.\Generated_Source\PSoC4/ADC_SAR_Seq.c **** *
 607:.\Generated_Source\PSoC4/ADC_SAR_Seq.c **** * Parameters:
 608:.\Generated_Source\PSoC4/ADC_SAR_Seq.c **** *  highLimit: The high limit for a limit condition.
 609:.\Generated_Source\PSoC4/ADC_SAR_Seq.c **** *
 610:.\Generated_Source\PSoC4/ADC_SAR_Seq.c **** * Return:
 611:.\Generated_Source\PSoC4/ADC_SAR_Seq.c **** *  None.
 612:.\Generated_Source\PSoC4/ADC_SAR_Seq.c **** *
 613:.\Generated_Source\PSoC4/ADC_SAR_Seq.c **** *******************************************************************************/
 614:.\Generated_Source\PSoC4/ADC_SAR_Seq.c **** void ADC_SAR_Seq_SetHighLimit(uint32 highLimit)
 615:.\Generated_Source\PSoC4/ADC_SAR_Seq.c **** {
 622              		.loc 1 615 0
 623              		.cfi_startproc
 624              	.LVL43:
 616:.\Generated_Source\PSoC4/ADC_SAR_Seq.c ****     ADC_SAR_Seq_SAR_RANGE_THRES_REG &= (uint32)(~ADC_SAR_Seq_RANGE_HIGH_MASK);
 625              		.loc 1 616 0
 626 0000 044A     		ldr	r2, .L51
ARM GAS  C:\Users\lenovo\AppData\Local\Temp\ccUb5gf7.s 			page 23


 627 0002 1368     		ldr	r3, [r2]
 628 0004 1B04     		lsl	r3, r3, #16
 629 0006 1B0C     		lsr	r3, r3, #16
 630 0008 1360     		str	r3, [r2]
 617:.\Generated_Source\PSoC4/ADC_SAR_Seq.c ****     ADC_SAR_Seq_SAR_RANGE_THRES_REG |= (uint32)(highLimit << ADC_SAR_Seq_RANGE_HIGH_OFFSET);
 631              		.loc 1 617 0
 632 000a 1368     		ldr	r3, [r2]
 633 000c 0004     		lsl	r0, r0, #16
 634              	.LVL44:
 635 000e 1843     		orr	r0, r3
 636 0010 1060     		str	r0, [r2]
 618:.\Generated_Source\PSoC4/ADC_SAR_Seq.c **** }
 637              		.loc 1 618 0
 638              		@ sp needed
 639 0012 7047     		bx	lr
 640              	.L52:
 641              		.align	2
 642              	.L51:
 643 0014 18001A40 		.word	1075445784
 644              		.cfi_endproc
 645              	.LFE10:
 646              		.size	ADC_SAR_Seq_SetHighLimit, .-ADC_SAR_Seq_SetHighLimit
 647              		.section	.text.ADC_SAR_Seq_SetLimitMask,"ax",%progbits
 648              		.align	2
 649              		.global	ADC_SAR_Seq_SetLimitMask
 650              		.code	16
 651              		.thumb_func
 652              		.type	ADC_SAR_Seq_SetLimitMask, %function
 653              	ADC_SAR_Seq_SetLimitMask:
 654              	.LFB11:
 619:.\Generated_Source\PSoC4/ADC_SAR_Seq.c **** 
 620:.\Generated_Source\PSoC4/ADC_SAR_Seq.c **** 
 621:.\Generated_Source\PSoC4/ADC_SAR_Seq.c **** /*******************************************************************************
 622:.\Generated_Source\PSoC4/ADC_SAR_Seq.c **** * Function Name: ADC_SAR_Seq_SetLimitMask
 623:.\Generated_Source\PSoC4/ADC_SAR_Seq.c **** ********************************************************************************
 624:.\Generated_Source\PSoC4/ADC_SAR_Seq.c **** *
 625:.\Generated_Source\PSoC4/ADC_SAR_Seq.c **** * Summary:
 626:.\Generated_Source\PSoC4/ADC_SAR_Seq.c **** *  Sets the channel limit condition mask.
 627:.\Generated_Source\PSoC4/ADC_SAR_Seq.c **** *
 628:.\Generated_Source\PSoC4/ADC_SAR_Seq.c **** * Parameters:
 629:.\Generated_Source\PSoC4/ADC_SAR_Seq.c **** *  mask: Sets which channels that may cause a
 630:.\Generated_Source\PSoC4/ADC_SAR_Seq.c **** *  limit condition interrupt. Setting bits for channels that do not exist
 631:.\Generated_Source\PSoC4/ADC_SAR_Seq.c **** *  will have no effect. For example, if only 6 channels were enabled,
 632:.\Generated_Source\PSoC4/ADC_SAR_Seq.c **** *  setting a mask of 0x0103 would only enable the last two channels (0 and 1).
 633:.\Generated_Source\PSoC4/ADC_SAR_Seq.c **** *
 634:.\Generated_Source\PSoC4/ADC_SAR_Seq.c **** * Return:
 635:.\Generated_Source\PSoC4/ADC_SAR_Seq.c **** *  None.
 636:.\Generated_Source\PSoC4/ADC_SAR_Seq.c **** *
 637:.\Generated_Source\PSoC4/ADC_SAR_Seq.c **** *******************************************************************************/
 638:.\Generated_Source\PSoC4/ADC_SAR_Seq.c **** void ADC_SAR_Seq_SetLimitMask(uint32 mask)
 639:.\Generated_Source\PSoC4/ADC_SAR_Seq.c **** {
 655              		.loc 1 639 0
 656              		.cfi_startproc
 657              	.LVL45:
 640:.\Generated_Source\PSoC4/ADC_SAR_Seq.c ****     ADC_SAR_Seq_SAR_RANGE_INTR_MASK_REG = mask & ADC_SAR_Seq_MAX_CHANNELS_EN_MASK;
 658              		.loc 1 640 0
 659 0000 0323     		mov	r3, #3
ARM GAS  C:\Users\lenovo\AppData\Local\Temp\ccUb5gf7.s 			page 24


 660 0002 1840     		and	r0, r3
 661              	.LVL46:
 662 0004 014B     		ldr	r3, .L54
 663 0006 1860     		str	r0, [r3]
 641:.\Generated_Source\PSoC4/ADC_SAR_Seq.c **** }
 664              		.loc 1 641 0
 665              		@ sp needed
 666 0008 7047     		bx	lr
 667              	.L55:
 668 000a C046     		.align	2
 669              	.L54:
 670 000c 38021A40 		.word	1075446328
 671              		.cfi_endproc
 672              	.LFE11:
 673              		.size	ADC_SAR_Seq_SetLimitMask, .-ADC_SAR_Seq_SetLimitMask
 674              		.section	.text.ADC_SAR_Seq_SetSatMask,"ax",%progbits
 675              		.align	2
 676              		.global	ADC_SAR_Seq_SetSatMask
 677              		.code	16
 678              		.thumb_func
 679              		.type	ADC_SAR_Seq_SetSatMask, %function
 680              	ADC_SAR_Seq_SetSatMask:
 681              	.LFB12:
 642:.\Generated_Source\PSoC4/ADC_SAR_Seq.c **** 
 643:.\Generated_Source\PSoC4/ADC_SAR_Seq.c **** 
 644:.\Generated_Source\PSoC4/ADC_SAR_Seq.c **** /*******************************************************************************
 645:.\Generated_Source\PSoC4/ADC_SAR_Seq.c **** * Function Name: ADC_SAR_Seq_SetSatMask
 646:.\Generated_Source\PSoC4/ADC_SAR_Seq.c **** ********************************************************************************
 647:.\Generated_Source\PSoC4/ADC_SAR_Seq.c **** *
 648:.\Generated_Source\PSoC4/ADC_SAR_Seq.c **** * Summary:
 649:.\Generated_Source\PSoC4/ADC_SAR_Seq.c **** *  Sets the channel saturation event mask.
 650:.\Generated_Source\PSoC4/ADC_SAR_Seq.c **** *
 651:.\Generated_Source\PSoC4/ADC_SAR_Seq.c **** * Parameters:
 652:.\Generated_Source\PSoC4/ADC_SAR_Seq.c **** *  mask: Sets which channels that may cause a
 653:.\Generated_Source\PSoC4/ADC_SAR_Seq.c **** *  saturation event interrupt. Setting bits for channels that do not exist
 654:.\Generated_Source\PSoC4/ADC_SAR_Seq.c **** *  will have no effect. For example, if only 8 channels were enabled,
 655:.\Generated_Source\PSoC4/ADC_SAR_Seq.c **** *  setting a mask of 0x01C0 would only enable two channels (6 and 7).
 656:.\Generated_Source\PSoC4/ADC_SAR_Seq.c **** *
 657:.\Generated_Source\PSoC4/ADC_SAR_Seq.c **** * Return:
 658:.\Generated_Source\PSoC4/ADC_SAR_Seq.c **** *  None.
 659:.\Generated_Source\PSoC4/ADC_SAR_Seq.c **** *
 660:.\Generated_Source\PSoC4/ADC_SAR_Seq.c **** *******************************************************************************/
 661:.\Generated_Source\PSoC4/ADC_SAR_Seq.c **** void ADC_SAR_Seq_SetSatMask(uint32 mask)
 662:.\Generated_Source\PSoC4/ADC_SAR_Seq.c **** {
 682              		.loc 1 662 0
 683              		.cfi_startproc
 684              	.LVL47:
 663:.\Generated_Source\PSoC4/ADC_SAR_Seq.c ****     ADC_SAR_Seq_SAR_SATURATE_INTR_MASK_REG = mask & ADC_SAR_Seq_MAX_CHANNELS_EN_MASK;
 685              		.loc 1 663 0
 686 0000 0323     		mov	r3, #3
 687 0002 1840     		and	r0, r3
 688              	.LVL48:
 689 0004 014B     		ldr	r3, .L57
 690 0006 1860     		str	r0, [r3]
 664:.\Generated_Source\PSoC4/ADC_SAR_Seq.c **** }
 691              		.loc 1 664 0
 692              		@ sp needed
ARM GAS  C:\Users\lenovo\AppData\Local\Temp\ccUb5gf7.s 			page 25


 693 0008 7047     		bx	lr
 694              	.L58:
 695 000a C046     		.align	2
 696              	.L57:
 697 000c 28021A40 		.word	1075446312
 698              		.cfi_endproc
 699              	.LFE12:
 700              		.size	ADC_SAR_Seq_SetSatMask, .-ADC_SAR_Seq_SetSatMask
 701              		.section	.text.ADC_SAR_Seq_SetOffset,"ax",%progbits
 702              		.align	2
 703              		.global	ADC_SAR_Seq_SetOffset
 704              		.code	16
 705              		.thumb_func
 706              		.type	ADC_SAR_Seq_SetOffset, %function
 707              	ADC_SAR_Seq_SetOffset:
 708              	.LFB13:
 665:.\Generated_Source\PSoC4/ADC_SAR_Seq.c **** 
 666:.\Generated_Source\PSoC4/ADC_SAR_Seq.c **** 
 667:.\Generated_Source\PSoC4/ADC_SAR_Seq.c **** /*******************************************************************************
 668:.\Generated_Source\PSoC4/ADC_SAR_Seq.c **** * Function Name: ADC_SAR_Seq_SetOffset
 669:.\Generated_Source\PSoC4/ADC_SAR_Seq.c **** ********************************************************************************
 670:.\Generated_Source\PSoC4/ADC_SAR_Seq.c **** *
 671:.\Generated_Source\PSoC4/ADC_SAR_Seq.c **** * Summary:
 672:.\Generated_Source\PSoC4/ADC_SAR_Seq.c **** *   Description: Sets the ADC offset which is used by the functions
 673:.\Generated_Source\PSoC4/ADC_SAR_Seq.c **** *   ADC_CountsTo_uVolts, ADC_CountsTo_mVolts and ADC_CountsTo_Volts
 674:.\Generated_Source\PSoC4/ADC_SAR_Seq.c **** *   to substract the offset from the given reading
 675:.\Generated_Source\PSoC4/ADC_SAR_Seq.c **** *   before calculating the voltage conversion.
 676:.\Generated_Source\PSoC4/ADC_SAR_Seq.c **** *
 677:.\Generated_Source\PSoC4/ADC_SAR_Seq.c **** * Parameters:
 678:.\Generated_Source\PSoC4/ADC_SAR_Seq.c **** *  chan: ADC channel number.
 679:.\Generated_Source\PSoC4/ADC_SAR_Seq.c **** *  offset: This value is a measured value when the
 680:.\Generated_Source\PSoC4/ADC_SAR_Seq.c **** *          inputs are shorted or connected to the same input voltage.
 681:.\Generated_Source\PSoC4/ADC_SAR_Seq.c **** *
 682:.\Generated_Source\PSoC4/ADC_SAR_Seq.c **** * Return:
 683:.\Generated_Source\PSoC4/ADC_SAR_Seq.c **** *  None.
 684:.\Generated_Source\PSoC4/ADC_SAR_Seq.c **** *
 685:.\Generated_Source\PSoC4/ADC_SAR_Seq.c **** * Global variables:
 686:.\Generated_Source\PSoC4/ADC_SAR_Seq.c **** *  ADC_SAR_Seq_Offset:  Modified to set the user provided offset.
 687:.\Generated_Source\PSoC4/ADC_SAR_Seq.c **** *
 688:.\Generated_Source\PSoC4/ADC_SAR_Seq.c **** *******************************************************************************/
 689:.\Generated_Source\PSoC4/ADC_SAR_Seq.c **** void ADC_SAR_Seq_SetOffset(uint32 chan, int16 offset)
 690:.\Generated_Source\PSoC4/ADC_SAR_Seq.c **** {
 709              		.loc 1 690 0
 710              		.cfi_startproc
 711              	.LVL49:
 712 0000 38B5     		push	{r3, r4, r5, lr}
 713              		.cfi_def_cfa_offset 16
 714              		.cfi_offset 3, -16
 715              		.cfi_offset 4, -12
 716              		.cfi_offset 5, -8
 717              		.cfi_offset 14, -4
 718 0002 041C     		mov	r4, r0
 719 0004 0D1C     		mov	r5, r1
 691:.\Generated_Source\PSoC4/ADC_SAR_Seq.c ****     /* Halt CPU in debug mode if channel is out of valid range */
 692:.\Generated_Source\PSoC4/ADC_SAR_Seq.c ****     CYASSERT(chan < ADC_SAR_Seq_TOTAL_CHANNELS_NUM);
 720              		.loc 1 692 0
 721 0006 0128     		cmp	r0, #1
ARM GAS  C:\Users\lenovo\AppData\Local\Temp\ccUb5gf7.s 			page 26


 722 0008 02D9     		bls	.L60
 723              		.loc 1 692 0 is_stmt 0 discriminator 1
 724 000a 0020     		mov	r0, #0
 725              	.LVL50:
 726 000c FFF7FEFF 		bl	CyHalt
 727              	.LVL51:
 728              	.L60:
 693:.\Generated_Source\PSoC4/ADC_SAR_Seq.c **** 
 694:.\Generated_Source\PSoC4/ADC_SAR_Seq.c ****     ADC_SAR_Seq_offset[chan] = offset;
 729              		.loc 1 694 0 is_stmt 1
 730 0010 6400     		lsl	r4, r4, #1
 731              	.LVL52:
 732 0012 014B     		ldr	r3, .L61
 733 0014 E552     		strh	r5, [r4, r3]
 695:.\Generated_Source\PSoC4/ADC_SAR_Seq.c **** }
 734              		.loc 1 695 0
 735              		@ sp needed
 736 0016 38BD     		pop	{r3, r4, r5, pc}
 737              	.L62:
 738              		.align	2
 739              	.L61:
 740 0018 00000000 		.word	ADC_SAR_Seq_offset
 741              		.cfi_endproc
 742              	.LFE13:
 743              		.size	ADC_SAR_Seq_SetOffset, .-ADC_SAR_Seq_SetOffset
 744              		.section	.text.ADC_SAR_Seq_SetGain,"ax",%progbits
 745              		.align	2
 746              		.global	ADC_SAR_Seq_SetGain
 747              		.code	16
 748              		.thumb_func
 749              		.type	ADC_SAR_Seq_SetGain, %function
 750              	ADC_SAR_Seq_SetGain:
 751              	.LFB14:
 696:.\Generated_Source\PSoC4/ADC_SAR_Seq.c **** 
 697:.\Generated_Source\PSoC4/ADC_SAR_Seq.c **** 
 698:.\Generated_Source\PSoC4/ADC_SAR_Seq.c **** /*******************************************************************************
 699:.\Generated_Source\PSoC4/ADC_SAR_Seq.c **** * Function Name: ADC_SAR_Seq_SetGain
 700:.\Generated_Source\PSoC4/ADC_SAR_Seq.c **** ********************************************************************************
 701:.\Generated_Source\PSoC4/ADC_SAR_Seq.c **** *
 702:.\Generated_Source\PSoC4/ADC_SAR_Seq.c **** * Summary:
 703:.\Generated_Source\PSoC4/ADC_SAR_Seq.c **** *  Description: Sets the ADC gain in counts per 10 volt for the voltage
 704:.\Generated_Source\PSoC4/ADC_SAR_Seq.c **** *  conversion functions below. This value is set by default by the
 705:.\Generated_Source\PSoC4/ADC_SAR_Seq.c **** *  reference and input range settings. It should only be used to further
 706:.\Generated_Source\PSoC4/ADC_SAR_Seq.c **** *  calibrate the ADC with a known input or if an external reference is
 707:.\Generated_Source\PSoC4/ADC_SAR_Seq.c **** *  used. Affects the ADC_CountsTo_uVolts, ADC_CountsTo_mVolts
 708:.\Generated_Source\PSoC4/ADC_SAR_Seq.c **** *  and ADC_CountsTo_Volts functions by supplying the correct
 709:.\Generated_Source\PSoC4/ADC_SAR_Seq.c **** *  conversion between ADC counts and voltage.
 710:.\Generated_Source\PSoC4/ADC_SAR_Seq.c **** *
 711:.\Generated_Source\PSoC4/ADC_SAR_Seq.c **** * Parameters:
 712:.\Generated_Source\PSoC4/ADC_SAR_Seq.c **** *  chan: ADC channel number.
 713:.\Generated_Source\PSoC4/ADC_SAR_Seq.c **** *  adcGain: ADC gain in counts per 10 volts.
 714:.\Generated_Source\PSoC4/ADC_SAR_Seq.c **** *
 715:.\Generated_Source\PSoC4/ADC_SAR_Seq.c **** * Return:
 716:.\Generated_Source\PSoC4/ADC_SAR_Seq.c **** *  None.
 717:.\Generated_Source\PSoC4/ADC_SAR_Seq.c **** *
 718:.\Generated_Source\PSoC4/ADC_SAR_Seq.c **** * Global variables:
 719:.\Generated_Source\PSoC4/ADC_SAR_Seq.c **** *  ADC_SAR_Seq_CountsPer10Volt:  modified to set the ADC gain in counts
ARM GAS  C:\Users\lenovo\AppData\Local\Temp\ccUb5gf7.s 			page 27


 720:.\Generated_Source\PSoC4/ADC_SAR_Seq.c **** *   per 10 volt.
 721:.\Generated_Source\PSoC4/ADC_SAR_Seq.c **** *
 722:.\Generated_Source\PSoC4/ADC_SAR_Seq.c **** *******************************************************************************/
 723:.\Generated_Source\PSoC4/ADC_SAR_Seq.c **** void ADC_SAR_Seq_SetGain(uint32 chan, int32 adcGain)
 724:.\Generated_Source\PSoC4/ADC_SAR_Seq.c **** {
 752              		.loc 1 724 0
 753              		.cfi_startproc
 754              	.LVL53:
 755 0000 38B5     		push	{r3, r4, r5, lr}
 756              		.cfi_def_cfa_offset 16
 757              		.cfi_offset 3, -16
 758              		.cfi_offset 4, -12
 759              		.cfi_offset 5, -8
 760              		.cfi_offset 14, -4
 761 0002 041C     		mov	r4, r0
 762 0004 0D1C     		mov	r5, r1
 725:.\Generated_Source\PSoC4/ADC_SAR_Seq.c ****     /* Halt CPU in debug mode if channel is out of valid range */
 726:.\Generated_Source\PSoC4/ADC_SAR_Seq.c ****     CYASSERT(chan < ADC_SAR_Seq_TOTAL_CHANNELS_NUM);
 763              		.loc 1 726 0
 764 0006 0128     		cmp	r0, #1
 765 0008 02D9     		bls	.L64
 766              		.loc 1 726 0 is_stmt 0 discriminator 1
 767 000a 0020     		mov	r0, #0
 768              	.LVL54:
 769 000c FFF7FEFF 		bl	CyHalt
 770              	.LVL55:
 771              	.L64:
 727:.\Generated_Source\PSoC4/ADC_SAR_Seq.c **** 
 728:.\Generated_Source\PSoC4/ADC_SAR_Seq.c ****     ADC_SAR_Seq_countsPer10Volt[chan] = adcGain;
 772              		.loc 1 728 0 is_stmt 1
 773 0010 A400     		lsl	r4, r4, #2
 774              	.LVL56:
 775 0012 014B     		ldr	r3, .L65
 776 0014 E550     		str	r5, [r4, r3]
 729:.\Generated_Source\PSoC4/ADC_SAR_Seq.c **** }
 777              		.loc 1 729 0
 778              		@ sp needed
 779              	.LVL57:
 780 0016 38BD     		pop	{r3, r4, r5, pc}
 781              	.L66:
 782              		.align	2
 783              	.L65:
 784 0018 00000000 		.word	ADC_SAR_Seq_countsPer10Volt
 785              		.cfi_endproc
 786              	.LFE14:
 787              		.size	ADC_SAR_Seq_SetGain, .-ADC_SAR_Seq_SetGain
 788              		.section	.text.ADC_SAR_Seq_CountsTo_mVolts,"ax",%progbits
 789              		.align	2
 790              		.global	ADC_SAR_Seq_CountsTo_mVolts
 791              		.code	16
 792              		.thumb_func
 793              		.type	ADC_SAR_Seq_CountsTo_mVolts, %function
 794              	ADC_SAR_Seq_CountsTo_mVolts:
 795              	.LFB15:
 730:.\Generated_Source\PSoC4/ADC_SAR_Seq.c **** 
 731:.\Generated_Source\PSoC4/ADC_SAR_Seq.c **** 
 732:.\Generated_Source\PSoC4/ADC_SAR_Seq.c **** #if(ADC_SAR_Seq_DEFAULT_JUSTIFICATION_SEL == ADC_SAR_Seq__RIGHT)
ARM GAS  C:\Users\lenovo\AppData\Local\Temp\ccUb5gf7.s 			page 28


 733:.\Generated_Source\PSoC4/ADC_SAR_Seq.c **** 
 734:.\Generated_Source\PSoC4/ADC_SAR_Seq.c **** 
 735:.\Generated_Source\PSoC4/ADC_SAR_Seq.c ****     /*******************************************************************************
 736:.\Generated_Source\PSoC4/ADC_SAR_Seq.c ****     * Function Name: ADC_SAR_Seq_CountsTo_mVolts
 737:.\Generated_Source\PSoC4/ADC_SAR_Seq.c ****     ********************************************************************************
 738:.\Generated_Source\PSoC4/ADC_SAR_Seq.c ****     *
 739:.\Generated_Source\PSoC4/ADC_SAR_Seq.c ****     * Summary:
 740:.\Generated_Source\PSoC4/ADC_SAR_Seq.c ****     *  This function converts ADC counts to mVolts
 741:.\Generated_Source\PSoC4/ADC_SAR_Seq.c ****     *  This function is not available when left data format justification selected.
 742:.\Generated_Source\PSoC4/ADC_SAR_Seq.c ****     *
 743:.\Generated_Source\PSoC4/ADC_SAR_Seq.c ****     * Parameters:
 744:.\Generated_Source\PSoC4/ADC_SAR_Seq.c ****     *  chan: The ADC channel number.
 745:.\Generated_Source\PSoC4/ADC_SAR_Seq.c ****     *  adcCounts: Result from the ADC conversion
 746:.\Generated_Source\PSoC4/ADC_SAR_Seq.c ****     *
 747:.\Generated_Source\PSoC4/ADC_SAR_Seq.c ****     * Return:
 748:.\Generated_Source\PSoC4/ADC_SAR_Seq.c ****     *  Results in mVolts
 749:.\Generated_Source\PSoC4/ADC_SAR_Seq.c ****     *
 750:.\Generated_Source\PSoC4/ADC_SAR_Seq.c ****     * Global variables:
 751:.\Generated_Source\PSoC4/ADC_SAR_Seq.c ****     *  ADC_SAR_Seq_countsPer10Volt:  used to convert ADC counts to mVolts.
 752:.\Generated_Source\PSoC4/ADC_SAR_Seq.c ****     *  ADC_SAR_Seq_Offset:  Used as the offset while converting ADC counts
 753:.\Generated_Source\PSoC4/ADC_SAR_Seq.c ****     *   to mVolts.
 754:.\Generated_Source\PSoC4/ADC_SAR_Seq.c ****     *
 755:.\Generated_Source\PSoC4/ADC_SAR_Seq.c ****     *******************************************************************************/
 756:.\Generated_Source\PSoC4/ADC_SAR_Seq.c ****     int16 ADC_SAR_Seq_CountsTo_mVolts(uint32 chan, int16 adcCounts)
 757:.\Generated_Source\PSoC4/ADC_SAR_Seq.c ****     {
 796              		.loc 1 757 0
 797              		.cfi_startproc
 798              	.LVL58:
 799 0000 38B5     		push	{r3, r4, r5, lr}
 800              		.cfi_def_cfa_offset 16
 801              		.cfi_offset 3, -16
 802              		.cfi_offset 4, -12
 803              		.cfi_offset 5, -8
 804              		.cfi_offset 14, -4
 805 0002 041C     		mov	r4, r0
 806 0004 0D1C     		mov	r5, r1
 758:.\Generated_Source\PSoC4/ADC_SAR_Seq.c ****         int16 mVolts;
 759:.\Generated_Source\PSoC4/ADC_SAR_Seq.c **** 
 760:.\Generated_Source\PSoC4/ADC_SAR_Seq.c ****         /* Halt CPU in debug mode if channel is out of valid range */
 761:.\Generated_Source\PSoC4/ADC_SAR_Seq.c ****         CYASSERT(chan < ADC_SAR_Seq_TOTAL_CHANNELS_NUM);
 807              		.loc 1 761 0
 808 0006 0128     		cmp	r0, #1
 809 0008 02D9     		bls	.L68
 810              		.loc 1 761 0 is_stmt 0 discriminator 1
 811 000a 0020     		mov	r0, #0
 812              	.LVL59:
 813 000c FFF7FEFF 		bl	CyHalt
 814              	.LVL60:
 815              	.L68:
 762:.\Generated_Source\PSoC4/ADC_SAR_Seq.c **** 
 763:.\Generated_Source\PSoC4/ADC_SAR_Seq.c ****         /* Divide the adcCount when accumulate averaging mode selected */
 764:.\Generated_Source\PSoC4/ADC_SAR_Seq.c ****         #if(ADC_SAR_Seq_DEFAULT_AVG_MODE == ADC_SAR_Seq__ACCUMULATE)
 765:.\Generated_Source\PSoC4/ADC_SAR_Seq.c ****             if((ADC_SAR_Seq_channelsConfig[chan] & ADC_SAR_Seq_AVERAGING_EN) != 0u)
 766:.\Generated_Source\PSoC4/ADC_SAR_Seq.c ****             {
 767:.\Generated_Source\PSoC4/ADC_SAR_Seq.c ****                 adcCounts /= ADC_SAR_Seq_DEFAULT_AVG_SAMPLES_DIV;
 768:.\Generated_Source\PSoC4/ADC_SAR_Seq.c ****             }
 769:.\Generated_Source\PSoC4/ADC_SAR_Seq.c ****         #endif /* ADC_SAR_Seq_DEFAULT_AVG_MODE == ADC_SAR_Seq__ACCUMULATE */
ARM GAS  C:\Users\lenovo\AppData\Local\Temp\ccUb5gf7.s 			page 29


 770:.\Generated_Source\PSoC4/ADC_SAR_Seq.c **** 
 771:.\Generated_Source\PSoC4/ADC_SAR_Seq.c ****         /* Subtract ADC offset */
 772:.\Generated_Source\PSoC4/ADC_SAR_Seq.c ****         adcCounts -= ADC_SAR_Seq_offset[chan];
 816              		.loc 1 772 0 is_stmt 1
 817 0010 6300     		lsl	r3, r4, #1
 818 0012 0F4A     		ldr	r2, .L71
 819 0014 995A     		ldrh	r1, [r3, r2]
 820 0016 691A     		sub	r1, r5, r1
 821 0018 09B2     		sxth	r1, r1
 822              	.LVL61:
 773:.\Generated_Source\PSoC4/ADC_SAR_Seq.c **** 
 774:.\Generated_Source\PSoC4/ADC_SAR_Seq.c ****         mVolts = (int16)((((int32)adcCounts * ADC_SAR_Seq_10MV_COUNTS) + ( (adcCounts > 0) ?
 823              		.loc 1 774 0
 824 001a 0E48     		ldr	r0, .L71+4
 825 001c 021C     		mov	r2, r0
 826 001e 4A43     		mul	r2, r1
 775:.\Generated_Source\PSoC4/ADC_SAR_Seq.c ****                  (ADC_SAR_Seq_countsPer10Volt[chan] / 2) : (-(ADC_SAR_Seq_countsPer10Volt[chan] / 2
 827              		.loc 1 775 0
 828 0020 0029     		cmp	r1, #0
 829 0022 06DD     		ble	.L69
 830              		.loc 1 775 0 is_stmt 0 discriminator 1
 831 0024 A300     		lsl	r3, r4, #2
 832 0026 0C49     		ldr	r1, .L71+8
 833              	.LVL62:
 834 0028 5B58     		ldr	r3, [r3, r1]
 835 002a D80F     		lsr	r0, r3, #31
 836 002c C018     		add	r0, r0, r3
 837 002e 4310     		asr	r3, r0, #1
 838 0030 06E0     		b	.L70
 839              	.LVL63:
 840              	.L69:
 841              		.loc 1 775 0 discriminator 2
 842 0032 A300     		lsl	r3, r4, #2
 843 0034 0849     		ldr	r1, .L71+8
 844              	.LVL64:
 845 0036 5B58     		ldr	r3, [r3, r1]
 846 0038 D80F     		lsr	r0, r3, #31
 847 003a C318     		add	r3, r0, r3
 848 003c 5B10     		asr	r3, r3, #1
 849 003e 5B42     		neg	r3, r3
 850              	.L70:
 774:.\Generated_Source\PSoC4/ADC_SAR_Seq.c ****                  (ADC_SAR_Seq_countsPer10Volt[chan] / 2) : (-(ADC_SAR_Seq_countsPer10Volt[chan] / 2
 851              		.loc 1 774 0 is_stmt 1
 852 0040 D018     		add	r0, r2, r3
 776:.\Generated_Source\PSoC4/ADC_SAR_Seq.c ****                  / ADC_SAR_Seq_countsPer10Volt[chan]);
 853              		.loc 1 776 0
 854 0042 A400     		lsl	r4, r4, #2
 855              	.LVL65:
 856 0044 044B     		ldr	r3, .L71+8
 857 0046 E158     		ldr	r1, [r4, r3]
 858 0048 FFF7FEFF 		bl	__aeabi_idiv
 859              	.LVL66:
 777:.\Generated_Source\PSoC4/ADC_SAR_Seq.c **** 
 778:.\Generated_Source\PSoC4/ADC_SAR_Seq.c ****         return( mVolts );
 860              		.loc 1 778 0
 861 004c 00B2     		sxth	r0, r0
 779:.\Generated_Source\PSoC4/ADC_SAR_Seq.c ****     }
ARM GAS  C:\Users\lenovo\AppData\Local\Temp\ccUb5gf7.s 			page 30


 862              		.loc 1 779 0
 863              		@ sp needed
 864 004e 38BD     		pop	{r3, r4, r5, pc}
 865              	.L72:
 866              		.align	2
 867              	.L71:
 868 0050 00000000 		.word	ADC_SAR_Seq_offset
 869 0054 10270000 		.word	10000
 870 0058 00000000 		.word	ADC_SAR_Seq_countsPer10Volt
 871              		.cfi_endproc
 872              	.LFE15:
 873              		.size	ADC_SAR_Seq_CountsTo_mVolts, .-ADC_SAR_Seq_CountsTo_mVolts
 874              		.global	__aeabi_lmul
 875              		.global	__aeabi_ldivmod
 876              		.section	.text.ADC_SAR_Seq_CountsTo_uVolts,"ax",%progbits
 877              		.align	2
 878              		.global	ADC_SAR_Seq_CountsTo_uVolts
 879              		.code	16
 880              		.thumb_func
 881              		.type	ADC_SAR_Seq_CountsTo_uVolts, %function
 882              	ADC_SAR_Seq_CountsTo_uVolts:
 883              	.LFB16:
 780:.\Generated_Source\PSoC4/ADC_SAR_Seq.c **** 
 781:.\Generated_Source\PSoC4/ADC_SAR_Seq.c **** 
 782:.\Generated_Source\PSoC4/ADC_SAR_Seq.c ****     /*******************************************************************************
 783:.\Generated_Source\PSoC4/ADC_SAR_Seq.c ****     * Function Name: ADC_SAR_Seq_CountsTo_uVolts
 784:.\Generated_Source\PSoC4/ADC_SAR_Seq.c ****     ********************************************************************************
 785:.\Generated_Source\PSoC4/ADC_SAR_Seq.c ****     *
 786:.\Generated_Source\PSoC4/ADC_SAR_Seq.c ****     * Summary:
 787:.\Generated_Source\PSoC4/ADC_SAR_Seq.c ****     *  This function converts ADC counts to micro Volts
 788:.\Generated_Source\PSoC4/ADC_SAR_Seq.c ****     *  This function is not available when left data format justification selected.
 789:.\Generated_Source\PSoC4/ADC_SAR_Seq.c ****     *
 790:.\Generated_Source\PSoC4/ADC_SAR_Seq.c ****     * Parameters:
 791:.\Generated_Source\PSoC4/ADC_SAR_Seq.c ****     *  chan: The ADC channel number.
 792:.\Generated_Source\PSoC4/ADC_SAR_Seq.c ****     *  adcCounts: Result from the ADC conversion
 793:.\Generated_Source\PSoC4/ADC_SAR_Seq.c ****     *
 794:.\Generated_Source\PSoC4/ADC_SAR_Seq.c ****     * Return:
 795:.\Generated_Source\PSoC4/ADC_SAR_Seq.c ****     *  Results in uVolts
 796:.\Generated_Source\PSoC4/ADC_SAR_Seq.c ****     *
 797:.\Generated_Source\PSoC4/ADC_SAR_Seq.c ****     * Global variables:
 798:.\Generated_Source\PSoC4/ADC_SAR_Seq.c ****     *  ADC_SAR_Seq_countsPer10Volt:  used to convert ADC counts to uVolts.
 799:.\Generated_Source\PSoC4/ADC_SAR_Seq.c ****     *  ADC_SAR_Seq_Offset:  Used as the offset while converting ADC counts
 800:.\Generated_Source\PSoC4/ADC_SAR_Seq.c ****     *   to mVolts.
 801:.\Generated_Source\PSoC4/ADC_SAR_Seq.c ****     *
 802:.\Generated_Source\PSoC4/ADC_SAR_Seq.c ****     * Theory:
 803:.\Generated_Source\PSoC4/ADC_SAR_Seq.c ****     *  Care must be taken to not exceed the maximum value for a 31 bit signed
 804:.\Generated_Source\PSoC4/ADC_SAR_Seq.c ****     *  number in the conversion to uVolts and at the same time not loose
 805:.\Generated_Source\PSoC4/ADC_SAR_Seq.c ****     *  resolution.
 806:.\Generated_Source\PSoC4/ADC_SAR_Seq.c ****     *  To convert adcCounts to microVolts it is required to be multiplied
 807:.\Generated_Source\PSoC4/ADC_SAR_Seq.c ****     *  on 10 million and later divide on gain in counts per 10V.
 808:.\Generated_Source\PSoC4/ADC_SAR_Seq.c ****     *
 809:.\Generated_Source\PSoC4/ADC_SAR_Seq.c ****     *******************************************************************************/
 810:.\Generated_Source\PSoC4/ADC_SAR_Seq.c ****     int32 ADC_SAR_Seq_CountsTo_uVolts(uint32 chan, int16 adcCounts)
 811:.\Generated_Source\PSoC4/ADC_SAR_Seq.c ****     {
 884              		.loc 1 811 0
 885              		.cfi_startproc
 886              	.LVL67:
ARM GAS  C:\Users\lenovo\AppData\Local\Temp\ccUb5gf7.s 			page 31


 887 0000 38B5     		push	{r3, r4, r5, lr}
 888              		.cfi_def_cfa_offset 16
 889              		.cfi_offset 3, -16
 890              		.cfi_offset 4, -12
 891              		.cfi_offset 5, -8
 892              		.cfi_offset 14, -4
 893 0002 051C     		mov	r5, r0
 894 0004 0C1C     		mov	r4, r1
 812:.\Generated_Source\PSoC4/ADC_SAR_Seq.c ****         int64 uVolts;
 813:.\Generated_Source\PSoC4/ADC_SAR_Seq.c **** 
 814:.\Generated_Source\PSoC4/ADC_SAR_Seq.c ****         /* Halt CPU in debug mode if channel is out of valid range */
 815:.\Generated_Source\PSoC4/ADC_SAR_Seq.c ****         CYASSERT(chan < ADC_SAR_Seq_TOTAL_CHANNELS_NUM);
 895              		.loc 1 815 0
 896 0006 0128     		cmp	r0, #1
 897 0008 02D9     		bls	.L74
 898              		.loc 1 815 0 is_stmt 0 discriminator 1
 899 000a 0020     		mov	r0, #0
 900              	.LVL68:
 901 000c FFF7FEFF 		bl	CyHalt
 902              	.LVL69:
 903              	.L74:
 816:.\Generated_Source\PSoC4/ADC_SAR_Seq.c **** 
 817:.\Generated_Source\PSoC4/ADC_SAR_Seq.c ****         /* Divide the adcCount when accumulate averaging mode selected */
 818:.\Generated_Source\PSoC4/ADC_SAR_Seq.c ****         #if(ADC_SAR_Seq_DEFAULT_AVG_MODE == ADC_SAR_Seq__ACCUMULATE)
 819:.\Generated_Source\PSoC4/ADC_SAR_Seq.c ****             if((ADC_SAR_Seq_channelsConfig[chan] & ADC_SAR_Seq_AVERAGING_EN) != 0u)
 820:.\Generated_Source\PSoC4/ADC_SAR_Seq.c ****             {
 821:.\Generated_Source\PSoC4/ADC_SAR_Seq.c ****                 adcCounts /= ADC_SAR_Seq_DEFAULT_AVG_SAMPLES_DIV;
 822:.\Generated_Source\PSoC4/ADC_SAR_Seq.c ****             }
 823:.\Generated_Source\PSoC4/ADC_SAR_Seq.c ****         #endif /* ADC_SAR_Seq_DEFAULT_AVG_MODE == ADC_SAR_Seq__ACCUMULATE */
 824:.\Generated_Source\PSoC4/ADC_SAR_Seq.c **** 
 825:.\Generated_Source\PSoC4/ADC_SAR_Seq.c ****         /* Subtract ADC offset */
 826:.\Generated_Source\PSoC4/ADC_SAR_Seq.c ****         adcCounts -= ADC_SAR_Seq_offset[chan];
 904              		.loc 1 826 0 is_stmt 1
 905 0010 6A00     		lsl	r2, r5, #1
 906 0012 084B     		ldr	r3, .L75
 907 0014 D05A     		ldrh	r0, [r2, r3]
 908 0016 201A     		sub	r0, r4, r0
 909 0018 00B2     		sxth	r0, r0
 910              	.LVL70:
 827:.\Generated_Source\PSoC4/ADC_SAR_Seq.c **** 
 828:.\Generated_Source\PSoC4/ADC_SAR_Seq.c ****         uVolts = ((int64)adcCounts * ADC_SAR_Seq_10UV_COUNTS) / ADC_SAR_Seq_countsPer10Volt[chan];
 911              		.loc 1 828 0
 912 001a C117     		asr	r1, r0, #31
 913 001c 064A     		ldr	r2, .L75+4
 914 001e 0023     		mov	r3, #0
 915 0020 FFF7FEFF 		bl	__aeabi_lmul
 916              	.LVL71:
 917 0024 AD00     		lsl	r5, r5, #2
 918              	.LVL72:
 919 0026 054B     		ldr	r3, .L75+8
 920 0028 EA58     		ldr	r2, [r5, r3]
 921 002a D317     		asr	r3, r2, #31
 922 002c FFF7FEFF 		bl	__aeabi_ldivmod
 923              	.LVL73:
 829:.\Generated_Source\PSoC4/ADC_SAR_Seq.c **** 
 830:.\Generated_Source\PSoC4/ADC_SAR_Seq.c ****         return( (int32)uVolts );
 831:.\Generated_Source\PSoC4/ADC_SAR_Seq.c ****     }
ARM GAS  C:\Users\lenovo\AppData\Local\Temp\ccUb5gf7.s 			page 32


 924              		.loc 1 831 0
 925              		@ sp needed
 926 0030 38BD     		pop	{r3, r4, r5, pc}
 927              	.L76:
 928 0032 C046     		.align	2
 929              	.L75:
 930 0034 00000000 		.word	ADC_SAR_Seq_offset
 931 0038 80969800 		.word	10000000
 932 003c 00000000 		.word	ADC_SAR_Seq_countsPer10Volt
 933              		.cfi_endproc
 934              	.LFE16:
 935              		.size	ADC_SAR_Seq_CountsTo_uVolts, .-ADC_SAR_Seq_CountsTo_uVolts
 936              		.global	__aeabi_i2f
 937              		.global	__aeabi_fmul
 938              		.global	__aeabi_fdiv
 939              		.section	.text.ADC_SAR_Seq_CountsTo_Volts,"ax",%progbits
 940              		.align	2
 941              		.global	ADC_SAR_Seq_CountsTo_Volts
 942              		.code	16
 943              		.thumb_func
 944              		.type	ADC_SAR_Seq_CountsTo_Volts, %function
 945              	ADC_SAR_Seq_CountsTo_Volts:
 946              	.LFB17:
 832:.\Generated_Source\PSoC4/ADC_SAR_Seq.c **** 
 833:.\Generated_Source\PSoC4/ADC_SAR_Seq.c **** 
 834:.\Generated_Source\PSoC4/ADC_SAR_Seq.c ****     /*******************************************************************************
 835:.\Generated_Source\PSoC4/ADC_SAR_Seq.c ****     * Function Name: ADC_SAR_Seq_CountsTo_Volts
 836:.\Generated_Source\PSoC4/ADC_SAR_Seq.c ****     ********************************************************************************
 837:.\Generated_Source\PSoC4/ADC_SAR_Seq.c ****     *
 838:.\Generated_Source\PSoC4/ADC_SAR_Seq.c ****     * Summary:
 839:.\Generated_Source\PSoC4/ADC_SAR_Seq.c ****     *  Converts the ADC output to Volts as a floating point number.
 840:.\Generated_Source\PSoC4/ADC_SAR_Seq.c ****     *  This function is not available when left data format justification selected.
 841:.\Generated_Source\PSoC4/ADC_SAR_Seq.c ****     *
 842:.\Generated_Source\PSoC4/ADC_SAR_Seq.c ****     * Parameters:
 843:.\Generated_Source\PSoC4/ADC_SAR_Seq.c ****     *  chan: The ADC channel number.
 844:.\Generated_Source\PSoC4/ADC_SAR_Seq.c ****     *  Result from the ADC conversion
 845:.\Generated_Source\PSoC4/ADC_SAR_Seq.c ****     *
 846:.\Generated_Source\PSoC4/ADC_SAR_Seq.c ****     * Return:
 847:.\Generated_Source\PSoC4/ADC_SAR_Seq.c ****     *  Results in Volts
 848:.\Generated_Source\PSoC4/ADC_SAR_Seq.c ****     *
 849:.\Generated_Source\PSoC4/ADC_SAR_Seq.c ****     * Global variables:
 850:.\Generated_Source\PSoC4/ADC_SAR_Seq.c ****     *  ADC_SAR_Seq_countsPer10Volt:  used to convert ADC counts to Volts.
 851:.\Generated_Source\PSoC4/ADC_SAR_Seq.c ****     *  ADC_SAR_Seq_Offset:  Used as the offset while converting ADC counts
 852:.\Generated_Source\PSoC4/ADC_SAR_Seq.c ****     *   to mVolts.
 853:.\Generated_Source\PSoC4/ADC_SAR_Seq.c ****     *
 854:.\Generated_Source\PSoC4/ADC_SAR_Seq.c ****     *******************************************************************************/
 855:.\Generated_Source\PSoC4/ADC_SAR_Seq.c ****     float32 ADC_SAR_Seq_CountsTo_Volts(uint32 chan, int16 adcCounts)
 856:.\Generated_Source\PSoC4/ADC_SAR_Seq.c ****     {
 947              		.loc 1 856 0
 948              		.cfi_startproc
 949              	.LVL74:
 950 0000 38B5     		push	{r3, r4, r5, lr}
 951              		.cfi_def_cfa_offset 16
 952              		.cfi_offset 3, -16
 953              		.cfi_offset 4, -12
 954              		.cfi_offset 5, -8
 955              		.cfi_offset 14, -4
ARM GAS  C:\Users\lenovo\AppData\Local\Temp\ccUb5gf7.s 			page 33


 956 0002 041C     		mov	r4, r0
 957 0004 0D1C     		mov	r5, r1
 857:.\Generated_Source\PSoC4/ADC_SAR_Seq.c ****         float32 volts;
 858:.\Generated_Source\PSoC4/ADC_SAR_Seq.c **** 
 859:.\Generated_Source\PSoC4/ADC_SAR_Seq.c ****         /* Halt CPU in debug mode if channel is out of valid range */
 860:.\Generated_Source\PSoC4/ADC_SAR_Seq.c ****         CYASSERT(chan < ADC_SAR_Seq_TOTAL_CHANNELS_NUM);
 958              		.loc 1 860 0
 959 0006 0128     		cmp	r0, #1
 960 0008 02D9     		bls	.L78
 961              		.loc 1 860 0 is_stmt 0 discriminator 1
 962 000a 0020     		mov	r0, #0
 963              	.LVL75:
 964 000c FFF7FEFF 		bl	CyHalt
 965              	.LVL76:
 966              	.L78:
 861:.\Generated_Source\PSoC4/ADC_SAR_Seq.c **** 
 862:.\Generated_Source\PSoC4/ADC_SAR_Seq.c ****         /* Divide the adcCount when accumulate averaging mode selected */
 863:.\Generated_Source\PSoC4/ADC_SAR_Seq.c ****         #if(ADC_SAR_Seq_DEFAULT_AVG_MODE == ADC_SAR_Seq__ACCUMULATE)
 864:.\Generated_Source\PSoC4/ADC_SAR_Seq.c ****             if((ADC_SAR_Seq_channelsConfig[chan] & ADC_SAR_Seq_AVERAGING_EN) != 0u)
 865:.\Generated_Source\PSoC4/ADC_SAR_Seq.c ****             {
 866:.\Generated_Source\PSoC4/ADC_SAR_Seq.c ****                 adcCounts /= ADC_SAR_Seq_DEFAULT_AVG_SAMPLES_DIV;
 867:.\Generated_Source\PSoC4/ADC_SAR_Seq.c ****             }
 868:.\Generated_Source\PSoC4/ADC_SAR_Seq.c ****         #endif /* ADC_SAR_Seq_DEFAULT_AVG_MODE == ADC_SAR_Seq__ACCUMULATE */
 869:.\Generated_Source\PSoC4/ADC_SAR_Seq.c **** 
 870:.\Generated_Source\PSoC4/ADC_SAR_Seq.c ****         /* Subtract ADC offset */
 871:.\Generated_Source\PSoC4/ADC_SAR_Seq.c ****         adcCounts -= ADC_SAR_Seq_offset[chan];
 967              		.loc 1 871 0 is_stmt 1
 968 0010 6200     		lsl	r2, r4, #1
 969 0012 0A4B     		ldr	r3, .L79
 970 0014 D05A     		ldrh	r0, [r2, r3]
 971 0016 281A     		sub	r0, r5, r0
 972 0018 00B2     		sxth	r0, r0
 973              	.LVL77:
 872:.\Generated_Source\PSoC4/ADC_SAR_Seq.c **** 
 873:.\Generated_Source\PSoC4/ADC_SAR_Seq.c ****         volts = ((float32)adcCounts * ADC_SAR_Seq_10V_COUNTS) / (float32)ADC_SAR_Seq_countsPer10Vol
 974              		.loc 1 873 0
 975 001a FFF7FEFF 		bl	__aeabi_i2f
 976              	.LVL78:
 977 001e 0849     		ldr	r1, .L79+4
 978 0020 FFF7FEFF 		bl	__aeabi_fmul
 979              	.LVL79:
 980 0024 051C     		add	r5, r0, #0
 981 0026 A400     		lsl	r4, r4, #2
 982              	.LVL80:
 983 0028 064B     		ldr	r3, .L79+8
 984 002a E058     		ldr	r0, [r4, r3]
 985 002c FFF7FEFF 		bl	__aeabi_i2f
 986              	.LVL81:
 987 0030 011C     		add	r1, r0, #0
 988 0032 281C     		add	r0, r5, #0
 989 0034 FFF7FEFF 		bl	__aeabi_fdiv
 990              	.LVL82:
 874:.\Generated_Source\PSoC4/ADC_SAR_Seq.c **** 
 875:.\Generated_Source\PSoC4/ADC_SAR_Seq.c ****         return( volts );
 876:.\Generated_Source\PSoC4/ADC_SAR_Seq.c ****     }
 991              		.loc 1 876 0
 992              		@ sp needed
ARM GAS  C:\Users\lenovo\AppData\Local\Temp\ccUb5gf7.s 			page 34


 993 0038 38BD     		pop	{r3, r4, r5, pc}
 994              	.L80:
 995 003a C046     		.align	2
 996              	.L79:
 997 003c 00000000 		.word	ADC_SAR_Seq_offset
 998 0040 00002041 		.word	1092616192
 999 0044 00000000 		.word	ADC_SAR_Seq_countsPer10Volt
 1000              		.cfi_endproc
 1001              	.LFE17:
 1002              		.size	ADC_SAR_Seq_CountsTo_Volts, .-ADC_SAR_Seq_CountsTo_Volts
 1003              		.comm	ADC_SAR_Seq_countsPer10Volt,8,4
 1004              		.comm	ADC_SAR_Seq_offset,4,4
 1005              		.global	ADC_SAR_Seq_initVar
 1006              		.section	.rodata
 1007              		.align	2
 1008              		.set	.LANCHOR0,. + 0
 1009              		.type	ADC_SAR_Seq_channelsConfig, %object
 1010              		.size	ADC_SAR_Seq_channelsConfig, 8
 1011              	ADC_SAR_Seq_channelsConfig:
 1012 0000 02040000 		.word	1026
 1013 0004 02040000 		.word	1026
 1014              		.type	ADC_SAR_Seq_InputsPlacement.4740, %object
 1015              		.size	ADC_SAR_Seq_InputsPlacement.4740, 2
 1016              	ADC_SAR_Seq_InputsPlacement.4740:
 1017 0008 73       		.byte	115
 1018 0009 72       		.byte	114
 1019 000a 0000     		.bss
 1020              		.set	.LANCHOR1,. + 0
 1021              		.type	ADC_SAR_Seq_initVar, %object
 1022              		.size	ADC_SAR_Seq_initVar, 1
 1023              	ADC_SAR_Seq_initVar:
 1024 0000 00       		.space	1
 1025              		.text
 1026              	.Letext0:
 1027              		.file 2 ".\\Generated_Source\\PSoC4\\cytypes.h"
 1028              		.file 3 ".\\Generated_Source\\PSoC4\\CyLib.h"