ARM GAS  C:\Users\lenovo\AppData\Local\Temp\ccvHjfpD.s 			page 1


   1              		.cpu cortex-m0
   2              		.fpu softvfp
   3              		.eabi_attribute 20, 1
   4              		.eabi_attribute 21, 1
   5              		.eabi_attribute 23, 3
   6              		.eabi_attribute 24, 1
   7              		.eabi_attribute 25, 1
   8              		.eabi_attribute 26, 1
   9              		.eabi_attribute 30, 1
  10              		.eabi_attribute 34, 0
  11              		.eabi_attribute 18, 4
  12              		.code	16
  13              		.file	"main.c"
  14              		.text
  15              	.Ltext0:
  16              		.cfi_sections	.debug_frame
  17              		.section	.text.TurnRightTiny,"ax",%progbits
  18              		.align	2
  19              		.global	TurnRightTiny
  20              		.code	16
  21              		.thumb_func
  22              		.type	TurnRightTiny, %function
  23              	TurnRightTiny:
  24              	.LFB34:
  25              		.file 1 ".\\main.c"
   1:.\main.c      **** /* ========================================
   2:.\main.c      ****    Â∞èËΩ¶Ëµ∞Ëø∑ÂÆ´‰ªªÂä°‰ª£Á†Å
   3:.\main.c      ****  * ========================================
   4:.\main.c      **** */
   5:.\main.c      **** #include <project.h>
   6:.\main.c      **** #include <stdio.h> //ÈúÄË¶Å‰ΩøÁî®sprintf
   7:.\main.c      **** 
   8:.\main.c      **** void TurnLeft();
   9:.\main.c      **** void TurnRight();
  10:.\main.c      **** void Backward();
  11:.\main.c      **** void Forward();
  12:.\main.c      **** void TurnRightTiny();
  13:.\main.c      **** void IntToString(char *str, int number);
  14:.\main.c      **** 
  15:.\main.c      **** uint32 ADC_Result_L = 0,ADC_Result_R = 0;//ADC_Result_LÂíåADC_Result_RÂàÜÂà´‰∏∫ADËΩ¨Êç¢ÂêéÁöÑÂ∑¶Âè≥
  16:.\main.c      **** float dist_L,dist_R;//dist_LÂíådist_RÂàÜÂà´‰∏∫Á∫¢Â§ñ‰º†ÊÑüÂô®Â§ÑÁêÜÂêéÊï∞ÊçÆ
  17:.\main.c      **** int dis_L,dis_R;//dist_LÂíådist_RÊï∞ÂÄºÁ±ªÂûãËΩ¨Êç¢ÂêéÊï∞ÊçÆ
  18:.\main.c      **** int e=0,e1=0,e2=0;//Êú∫Âô®‰∫∫‰∏éÂ∑¶‰æßÂ¢ôÂ£ÅË∑ùÁ¶ªÂÅèÂ∑ÆÂÄºÔºàÂΩìÂâçÊó∂Âàª„ÄÅ‰∏ä‰∏ÄÊó∂ÂàªÂíå‰∏ä‰∏äÊ
  19:.\main.c      **** int PWM_controlled_R;//Âè≥‰æßÁîµÊú∫ËæìÂÖ•PWMÊ≥¢ÂÄº
  20:.\main.c      **** char string_L[50],string_R[50];//Áî±Êï∞ÂÄºÂèòÊç¢‰∏∫Â≠óÁ¨¶‰∏≤Êó∂Â≠òÂÇ®ÁöÑÈòµÂàóÔºåÁî®‰∫éLCDÊòæÁ§∫
  21:.\main.c      **** 
  22:.\main.c      **** int main()
  23:.\main.c      **** {
  24:.\main.c      ****     //ËÆæÂ§áÂàùÂßãÂåñÈÉ®ÂàÜ
  25:.\main.c      ****     //PWM ÂàùÂßãÂåñ
  26:.\main.c      ****     PWM_R_Start();
  27:.\main.c      ****     PWM_L_Start();
  28:.\main.c      ****     //LCD ÂàùÂßãÂåñ
  29:.\main.c      ****     LCD_Char_Start();
  30:.\main.c      ****     LCD_Char_LoadCustomFonts(LCD_Char_customFonts);
  31:.\main.c      ****     LCD_Char_ClearDisplay();
  32:.\main.c      ****     LCD_Char_Position(0,0);
ARM GAS  C:\Users\lenovo\AppData\Local\Temp\ccvHjfpD.s 			page 2


  33:.\main.c      ****     CyGlobalIntEnable;
  34:.\main.c      ****     //ADC ÂàùÂßãÂåñ
  35:.\main.c      ****     ADC_SAR_Seq_Start();
  36:.\main.c      ****     ADC_SAR_Seq_StartConvert();
  37:.\main.c      **** 
  38:.\main.c      ****     //Á∫¢Â§ñ‰º†ÊÑüÂô®Êï∞ÊçÆÈááÈõÜ&Â§ÑÁêÜÈÉ®ÂàÜ
  39:.\main.c      ****     for(;;)
  40:.\main.c      ****     {
  41:.\main.c      ****         //Êï∞ÊçÆÈááÈõÜ
  42:.\main.c      ****         ADC_SAR_Seq_IsEndConversion(ADC_SAR_Seq_WAIT_FOR_RESULT);
  43:.\main.c      ****         ADC_Result_L = ADC_SAR_Seq_GetResult16(0);
  44:.\main.c      ****         ADC_Result_R = ADC_SAR_Seq_GetResult16(1);
  45:.\main.c      ****         //Â∑¶‰æßÁ∫¢Â§ñÊï∞ÊçÆÂ§ÑÁêÜ
  46:.\main.c      ****         if(ADC_Result_L >0xFFFF) ADC_Result_L =0;
  47:.\main.c      ****         if(ADC_Result_L>0)
  48:.\main.c      ****         {
  49:.\main.c      ****             dist_L=0.5/(0.00002*ADC_Result_L -0.00045)-2;
  50:.\main.c      ****             dis_L=(int)dist_L;
  51:.\main.c      ****             IntToString(string_L, dis_L);
  52:.\main.c      ****             LCD_Char_Position(0,0);
  53:.\main.c      ****             LCD_Char_PrintString(string_L);
  54:.\main.c      ****         }
  55:.\main.c      ****         //Âè≥‰æßÁ∫¢Â§ñÊï∞ÊçÆÂ§ÑÁêÜ
  56:.\main.c      ****         if(ADC_Result_R >0xFFFF) ADC_Result_R =0;
  57:.\main.c      ****         if(ADC_Result_R>0)
  58:.\main.c      ****         {
  59:.\main.c      ****             dist_R=0.5/(0.00002*ADC_Result_R -0.00045)-2;
  60:.\main.c      ****             dis_R=(int)dist_R;
  61:.\main.c      ****             //IntToString(string_R, dis_R);
  62:.\main.c      ****             //LCD_Char_Position(0,0);
  63:.\main.c      ****             //LCD_Char_PrintString(string_R);
  64:.\main.c      ****         }
  65:.\main.c      **** 
  66:.\main.c      ****         //ÊéßÂà∂Á≠ñÁï•
  67:.\main.c      ****         /*
  68:.\main.c      ****         //ÊñπÊ°à‰∏ÄÔºöOn-OffÈòàÂÄºÊéßÂà∂ÔºåÂèØ‰ª•ÂÆåÊàê‰ªªÂä°Ôºå‰ΩÜÊéßÂà∂ÊïàÊûú‰∏ÄËà¨
  69:.\main.c      ****         //Êú∫Âô®‰∫∫Á¢∞ÊíûÂêéÂ∫îÊÄ•Â§ÑÁêÜÔºöÂÄíËΩ¶&Âè≥ËΩ¨
  70:.\main.c      ****         if (Bumper_L_Read()==0 || Bumper_R_Read()==1)
  71:.\main.c      ****         {
  72:.\main.c      ****             Backward();
  73:.\main.c      ****             TurnRight();
  74:.\main.c      ****         }
  75:.\main.c      ****         else if(dis_L>=30)TurnLeft();
  76:.\main.c      ****         else if(dis_L<=22)TurnRightTiny();
  77:.\main.c      ****         else if(dis_R<=25)TurnRightTiny();      
  78:.\main.c      ****         else Forward();
  79:.\main.c      ****         */
  80:.\main.c      ****         
  81:.\main.c      ****         //ÊñπÊ°à‰∫åÔºöPIDÊéßÂà∂ÔºåÊéßÂà∂ÊïàÊûúËæÉ‰∏∫ÊµÅÁïÖ
  82:.\main.c      ****         //Êú∫Âô®‰∫∫Á¢∞ÊíûÂêéÂ∫îÊÄ•Â§ÑÁêÜÔºöÂÄíËΩ¶&Âè≥ËΩ¨
  83:.\main.c      ****         if (Bumper_L_Read()==0 || Bumper_R_Read()==1)
  84:.\main.c      ****         {
  85:.\main.c      ****             Backward();
  86:.\main.c      ****             TurnRight();
  87:.\main.c      ****         }
  88:.\main.c      ****         //ÂÅèÂ∑ÆÂÄºËÆ°ÁÆó&Êõ¥Êñ∞
  89:.\main.c      ****         e2 = e1;
ARM GAS  C:\Users\lenovo\AppData\Local\Temp\ccvHjfpD.s 			page 3


  90:.\main.c      ****         e1 = e;
  91:.\main.c      ****         e = dis_L-25;
  92:.\main.c      ****         //ÁîµÊú∫ÊéßÂà∂
  93:.\main.c      ****         PWM_L_WriteCompare(4100);//4100
  94:.\main.c      ****         PWM_controlled_R = 5100+100*e+50*(e+e1+e2)+10*(e-e1);
  95:.\main.c      ****         PWM_R_WriteCompare(PWM_controlled_R);
  96:.\main.c      ****         CyDelay(2);        
  97:.\main.c      ****     }
  98:.\main.c      ****     /*
  99:.\main.c      ****     //Á¢∞Êíû‰º†ÊÑüÂô®&PWMÊµãËØï
 100:.\main.c      ****     for(;;)
 101:.\main.c      ****     {
 102:.\main.c      ****         //Á¢∞Êíû‰º†ÊÑüÂô® Âè≥ÊñπÁ¢∞Êíû‰∏∫1ÔºåÂê¶Âàô‰∏∫0ÔºõÂ∑¶ÊñπÁ¢∞Êíû‰∏∫0ÔºåÂê¶Âàô‰∏∫1
 103:.\main.c      ****         if (Bumper_R_Read()== 1&&Bumper_L_Read()==1 ) TurnLeft();//Âè≥ÊñπÁ¢∞Êíû
 104:.\main.c      ****         if (Bumper_R_Read()== 0&&Bumper_L_Read()==0 ) TurnRight();//Â∑¶ÊñπÁ¢∞Êíû
 105:.\main.c      ****         if (Bumper_R_Read()== 1&&Bumper_L_Read()==0 ) Backward();//ÂâçÊñπÁ¢∞Êíû
 106:.\main.c      ****         Forward();
 107:.\main.c      ****         CyDelay(100);
 108:.\main.c      ****     }
 109:.\main.c      ****     */
 110:.\main.c      ****     return 0;
 111:.\main.c      **** }
 112:.\main.c      **** 
 113:.\main.c      **** //Â∞èÂπÖÂ∫¶Âè≥ËΩ¨
 114:.\main.c      **** void TurnRightTiny()
 115:.\main.c      **** {
  26              		.loc 1 115 0
  27              		.cfi_startproc
  28 0000 08B5     		push	{r3, lr}
  29              		.cfi_def_cfa_offset 8
  30              		.cfi_offset 3, -8
  31              		.cfi_offset 14, -4
 116:.\main.c      ****    LCD_Char_Position(1,0);
  32              		.loc 1 116 0
  33 0002 0120     		mov	r0, #1
  34 0004 0021     		mov	r1, #0
  35 0006 FFF7FEFF 		bl	LCD_Char_Position
  36              	.LVL0:
 117:.\main.c      ****    LCD_Char_PrintString("Turn RightTiny");
  37              		.loc 1 117 0
  38 000a 0648     		ldr	r0, .L2
  39 000c FFF7FEFF 		bl	LCD_Char_PrintString
  40              	.LVL1:
 118:.\main.c      ****    PWM_R_WriteCompare(4200);//4700
  41              		.loc 1 118 0
  42 0010 0548     		ldr	r0, .L2+4
  43 0012 FFF7FEFF 		bl	PWM_R_WriteCompare
  44              	.LVL2:
 119:.\main.c      ****    PWM_L_WriteCompare(4300);//3900
  45              		.loc 1 119 0
  46 0016 0548     		ldr	r0, .L2+8
  47 0018 FFF7FEFF 		bl	PWM_L_WriteCompare
  48              	.LVL3:
 120:.\main.c      ****    CyDelay(100);
  49              		.loc 1 120 0
  50 001c 6420     		mov	r0, #100
  51 001e FFF7FEFF 		bl	CyDelay
ARM GAS  C:\Users\lenovo\AppData\Local\Temp\ccvHjfpD.s 			page 4


  52              	.LVL4:
 121:.\main.c      **** }
  53              		.loc 1 121 0
  54              		@ sp needed
  55 0022 08BD     		pop	{r3, pc}
  56              	.L3:
  57              		.align	2
  58              	.L2:
  59 0024 00000000 		.word	.LC0
  60 0028 68100000 		.word	4200
  61 002c CC100000 		.word	4300
  62              		.cfi_endproc
  63              	.LFE34:
  64              		.size	TurnRightTiny, .-TurnRightTiny
  65              		.section	.text.TurnRight,"ax",%progbits
  66              		.align	2
  67              		.global	TurnRight
  68              		.code	16
  69              		.thumb_func
  70              		.type	TurnRight, %function
  71              	TurnRight:
  72              	.LFB35:
 122:.\main.c      **** 
 123:.\main.c      **** //Âè≥ËΩ¨
 124:.\main.c      **** void TurnRight()
 125:.\main.c      **** {
  73              		.loc 1 125 0
  74              		.cfi_startproc
  75 0000 08B5     		push	{r3, lr}
  76              		.cfi_def_cfa_offset 8
  77              		.cfi_offset 3, -8
  78              		.cfi_offset 14, -4
 126:.\main.c      ****     LCD_Char_ClearDisplay();
  79              		.loc 1 126 0
  80 0002 0120     		mov	r0, #1
  81 0004 FFF7FEFF 		bl	LCD_Char_WriteControl
  82              	.LVL5:
 127:.\main.c      ****     LCD_Char_Position(1,0);
  83              		.loc 1 127 0
  84 0008 0120     		mov	r0, #1
  85 000a 0021     		mov	r1, #0
  86 000c FFF7FEFF 		bl	LCD_Char_Position
  87              	.LVL6:
 128:.\main.c      ****     LCD_Char_PrintString("Turn Right");
  88              		.loc 1 128 0
  89 0010 0648     		ldr	r0, .L5
  90 0012 FFF7FEFF 		bl	LCD_Char_PrintString
  91              	.LVL7:
 129:.\main.c      ****     PWM_R_WriteCompare(3000);
  92              		.loc 1 129 0
  93 0016 0648     		ldr	r0, .L5+4
  94 0018 FFF7FEFF 		bl	PWM_R_WriteCompare
  95              	.LVL8:
 130:.\main.c      ****     PWM_L_WriteCompare(3500);
  96              		.loc 1 130 0
  97 001c 0548     		ldr	r0, .L5+8
  98 001e FFF7FEFF 		bl	PWM_L_WriteCompare
ARM GAS  C:\Users\lenovo\AppData\Local\Temp\ccvHjfpD.s 			page 5


  99              	.LVL9:
 131:.\main.c      ****     CyDelay(300);
 100              		.loc 1 131 0
 101 0022 9620     		mov	r0, #150
 102 0024 4000     		lsl	r0, r0, #1
 103 0026 FFF7FEFF 		bl	CyDelay
 104              	.LVL10:
 132:.\main.c      **** }
 105              		.loc 1 132 0
 106              		@ sp needed
 107 002a 08BD     		pop	{r3, pc}
 108              	.L6:
 109              		.align	2
 110              	.L5:
 111 002c 10000000 		.word	.LC2
 112 0030 B80B0000 		.word	3000
 113 0034 AC0D0000 		.word	3500
 114              		.cfi_endproc
 115              	.LFE35:
 116              		.size	TurnRight, .-TurnRight
 117              		.section	.text.TurnLeft,"ax",%progbits
 118              		.align	2
 119              		.global	TurnLeft
 120              		.code	16
 121              		.thumb_func
 122              		.type	TurnLeft, %function
 123              	TurnLeft:
 124              	.LFB36:
 133:.\main.c      **** 
 134:.\main.c      **** //Â∑¶ËΩ¨
 135:.\main.c      **** void TurnLeft()
 136:.\main.c      **** {
 125              		.loc 1 136 0
 126              		.cfi_startproc
 127 0000 08B5     		push	{r3, lr}
 128              		.cfi_def_cfa_offset 8
 129              		.cfi_offset 3, -8
 130              		.cfi_offset 14, -4
 137:.\main.c      ****    LCD_Char_ClearDisplay();
 131              		.loc 1 137 0
 132 0002 0120     		mov	r0, #1
 133 0004 FFF7FEFF 		bl	LCD_Char_WriteControl
 134              	.LVL11:
 138:.\main.c      ****    LCD_Char_Position(1,0);
 135              		.loc 1 138 0
 136 0008 0120     		mov	r0, #1
 137 000a 0021     		mov	r1, #0
 138 000c FFF7FEFF 		bl	LCD_Char_Position
 139              	.LVL12:
 139:.\main.c      ****    LCD_Char_PrintString("Turn Left");
 140              		.loc 1 139 0
 141 0010 0648     		ldr	r0, .L8
 142 0012 FFF7FEFF 		bl	LCD_Char_PrintString
 143              	.LVL13:
 140:.\main.c      ****    PWM_R_WriteCompare(5100);
 144              		.loc 1 140 0
 145 0016 0648     		ldr	r0, .L8+4
ARM GAS  C:\Users\lenovo\AppData\Local\Temp\ccvHjfpD.s 			page 6


 146 0018 FFF7FEFF 		bl	PWM_R_WriteCompare
 147              	.LVL14:
 141:.\main.c      ****    PWM_L_WriteCompare(4300);
 148              		.loc 1 141 0
 149 001c 0548     		ldr	r0, .L8+8
 150 001e FFF7FEFF 		bl	PWM_L_WriteCompare
 151              	.LVL15:
 142:.\main.c      ****    CyDelay(100);
 152              		.loc 1 142 0
 153 0022 6420     		mov	r0, #100
 154 0024 FFF7FEFF 		bl	CyDelay
 155              	.LVL16:
 143:.\main.c      **** }
 156              		.loc 1 143 0
 157              		@ sp needed
 158 0028 08BD     		pop	{r3, pc}
 159              	.L9:
 160 002a C046     		.align	2
 161              	.L8:
 162 002c 1C000000 		.word	.LC4
 163 0030 EC130000 		.word	5100
 164 0034 CC100000 		.word	4300
 165              		.cfi_endproc
 166              	.LFE36:
 167              		.size	TurnLeft, .-TurnLeft
 168              		.section	.text.Backward,"ax",%progbits
 169              		.align	2
 170              		.global	Backward
 171              		.code	16
 172              		.thumb_func
 173              		.type	Backward, %function
 174              	Backward:
 175              	.LFB37:
 144:.\main.c      **** 
 145:.\main.c      **** //ÂÄíËΩ¶
 146:.\main.c      **** void Backward()
 147:.\main.c      **** {
 176              		.loc 1 147 0
 177              		.cfi_startproc
 178 0000 08B5     		push	{r3, lr}
 179              		.cfi_def_cfa_offset 8
 180              		.cfi_offset 3, -8
 181              		.cfi_offset 14, -4
 148:.\main.c      ****     LCD_Char_ClearDisplay();
 182              		.loc 1 148 0
 183 0002 0120     		mov	r0, #1
 184 0004 FFF7FEFF 		bl	LCD_Char_WriteControl
 185              	.LVL17:
 149:.\main.c      ****     LCD_Char_Position(1,0);
 186              		.loc 1 149 0
 187 0008 0120     		mov	r0, #1
 188 000a 0021     		mov	r1, #0
 189 000c FFF7FEFF 		bl	LCD_Char_Position
 190              	.LVL18:
 150:.\main.c      ****     LCD_Char_PrintString("Backward");
 191              		.loc 1 150 0
 192 0010 0648     		ldr	r0, .L11
ARM GAS  C:\Users\lenovo\AppData\Local\Temp\ccvHjfpD.s 			page 7


 193 0012 FFF7FEFF 		bl	LCD_Char_PrintString
 194              	.LVL19:
 151:.\main.c      ****     PWM_R_WriteCompare(3900);
 195              		.loc 1 151 0
 196 0016 0648     		ldr	r0, .L11+4
 197 0018 FFF7FEFF 		bl	PWM_R_WriteCompare
 198              	.LVL20:
 152:.\main.c      ****     PWM_L_WriteCompare(5400);
 199              		.loc 1 152 0
 200 001c 0548     		ldr	r0, .L11+8
 201 001e FFF7FEFF 		bl	PWM_L_WriteCompare
 202              	.LVL21:
 153:.\main.c      ****     CyDelay(400);
 203              		.loc 1 153 0
 204 0022 C820     		mov	r0, #200
 205 0024 4000     		lsl	r0, r0, #1
 206 0026 FFF7FEFF 		bl	CyDelay
 207              	.LVL22:
 154:.\main.c      **** }
 208              		.loc 1 154 0
 209              		@ sp needed
 210 002a 08BD     		pop	{r3, pc}
 211              	.L12:
 212              		.align	2
 213              	.L11:
 214 002c 28000000 		.word	.LC6
 215 0030 3C0F0000 		.word	3900
 216 0034 18150000 		.word	5400
 217              		.cfi_endproc
 218              	.LFE37:
 219              		.size	Backward, .-Backward
 220              		.section	.text.Forward,"ax",%progbits
 221              		.align	2
 222              		.global	Forward
 223              		.code	16
 224              		.thumb_func
 225              		.type	Forward, %function
 226              	Forward:
 227              	.LFB38:
 155:.\main.c      **** 
 156:.\main.c      **** //Áõ¥Ë°å
 157:.\main.c      **** void Forward()
 158:.\main.c      **** {
 228              		.loc 1 158 0
 229              		.cfi_startproc
 230 0000 08B5     		push	{r3, lr}
 231              		.cfi_def_cfa_offset 8
 232              		.cfi_offset 3, -8
 233              		.cfi_offset 14, -4
 159:.\main.c      ****     LCD_Char_ClearDisplay();
 234              		.loc 1 159 0
 235 0002 0120     		mov	r0, #1
 236 0004 FFF7FEFF 		bl	LCD_Char_WriteControl
 237              	.LVL23:
 160:.\main.c      ****     LCD_Char_Position(1,0);
 238              		.loc 1 160 0
 239 0008 0120     		mov	r0, #1
ARM GAS  C:\Users\lenovo\AppData\Local\Temp\ccvHjfpD.s 			page 8


 240 000a 0021     		mov	r1, #0
 241 000c FFF7FEFF 		bl	LCD_Char_Position
 242              	.LVL24:
 161:.\main.c      ****     LCD_Char_PrintString("Forward");
 243              		.loc 1 161 0
 244 0010 0648     		ldr	r0, .L14
 245 0012 FFF7FEFF 		bl	LCD_Char_PrintString
 246              	.LVL25:
 162:.\main.c      ****     PWM_R_WriteCompare(5400);
 247              		.loc 1 162 0
 248 0016 0648     		ldr	r0, .L14+4
 249 0018 FFF7FEFF 		bl	PWM_R_WriteCompare
 250              	.LVL26:
 163:.\main.c      ****     PWM_L_WriteCompare(3900);
 251              		.loc 1 163 0
 252 001c 0548     		ldr	r0, .L14+8
 253 001e FFF7FEFF 		bl	PWM_L_WriteCompare
 254              	.LVL27:
 164:.\main.c      ****     CyDelay(50);
 255              		.loc 1 164 0
 256 0022 3220     		mov	r0, #50
 257 0024 FFF7FEFF 		bl	CyDelay
 258              	.LVL28:
 165:.\main.c      **** }
 259              		.loc 1 165 0
 260              		@ sp needed
 261 0028 08BD     		pop	{r3, pc}
 262              	.L15:
 263 002a C046     		.align	2
 264              	.L14:
 265 002c 34000000 		.word	.LC8
 266 0030 18150000 		.word	5400
 267 0034 3C0F0000 		.word	3900
 268              		.cfi_endproc
 269              	.LFE38:
 270              		.size	Forward, .-Forward
 271              		.section	.text.IntToString,"ax",%progbits
 272              		.align	2
 273              		.global	IntToString
 274              		.code	16
 275              		.thumb_func
 276              		.type	IntToString, %function
 277              	IntToString:
 278              	.LFB39:
 166:.\main.c      **** 
 167:.\main.c      **** void IntToString(char *str, int number)// Áî±Êï∞ÂÄºÂèòÊç¢‰∏∫Â≠óÁ¨¶‰∏≤ÁöÑÂáΩÊï∞
 168:.\main.c      **** {
 279              		.loc 1 168 0
 280              		.cfi_startproc
 281              	.LVL29:
 282 0000 08B5     		push	{r3, lr}
 283              		.cfi_def_cfa_offset 8
 284              		.cfi_offset 3, -8
 285              		.cfi_offset 14, -4
 286 0002 0A1C     		mov	r2, r1
 169:.\main.c      ****     sprintf(str, "%d", number);
 287              		.loc 1 169 0
ARM GAS  C:\Users\lenovo\AppData\Local\Temp\ccvHjfpD.s 			page 9


 288 0004 0149     		ldr	r1, .L17
 289              	.LVL30:
 290 0006 FFF7FEFF 		bl	sprintf
 291              	.LVL31:
 170:.\main.c      **** }
 292              		.loc 1 170 0
 293              		@ sp needed
 294 000a 08BD     		pop	{r3, pc}
 295              	.L18:
 296              		.align	2
 297              	.L17:
 298 000c 3C000000 		.word	.LC10
 299              		.cfi_endproc
 300              	.LFE39:
 301              		.size	IntToString, .-IntToString
 302              		.global	__aeabi_ui2d
 303              		.global	__aeabi_dmul
 304              		.global	__aeabi_dsub
 305              		.global	__aeabi_ddiv
 306              		.global	__aeabi_d2f
 307              		.global	__aeabi_f2iz
 308              		.section	.text.main,"ax",%progbits
 309              		.align	2
 310              		.global	main
 311              		.code	16
 312              		.thumb_func
 313              		.type	main, %function
 314              	main:
 315              	.LFB33:
  23:.\main.c      ****     //ËÆæÂ§áÂàùÂßãÂåñÈÉ®ÂàÜ
 316              		.loc 1 23 0
 317              		.cfi_startproc
 318 0000 38B5     		push	{r3, r4, r5, lr}
 319              		.cfi_def_cfa_offset 16
 320              		.cfi_offset 3, -16
 321              		.cfi_offset 4, -12
 322              		.cfi_offset 5, -8
 323              		.cfi_offset 14, -4
  26:.\main.c      ****     PWM_L_Start();
 324              		.loc 1 26 0
 325 0002 FFF7FEFF 		bl	PWM_R_Start
 326              	.LVL32:
  27:.\main.c      ****     //LCD ÂàùÂßãÂåñ
 327              		.loc 1 27 0
 328 0006 FFF7FEFF 		bl	PWM_L_Start
 329              	.LVL33:
  29:.\main.c      ****     LCD_Char_LoadCustomFonts(LCD_Char_customFonts);
 330              		.loc 1 29 0
 331 000a FFF7FEFF 		bl	LCD_Char_Start
 332              	.LVL34:
  30:.\main.c      ****     LCD_Char_ClearDisplay();
 333              		.loc 1 30 0
 334 000e 5448     		ldr	r0, .L27
 335 0010 FFF7FEFF 		bl	LCD_Char_LoadCustomFonts
 336              	.LVL35:
  31:.\main.c      ****     LCD_Char_Position(0,0);
 337              		.loc 1 31 0
ARM GAS  C:\Users\lenovo\AppData\Local\Temp\ccvHjfpD.s 			page 10


 338 0014 0120     		mov	r0, #1
 339 0016 FFF7FEFF 		bl	LCD_Char_WriteControl
 340              	.LVL36:
  32:.\main.c      ****     CyGlobalIntEnable;
 341              		.loc 1 32 0
 342 001a 0020     		mov	r0, #0
 343 001c 0021     		mov	r1, #0
 344 001e FFF7FEFF 		bl	LCD_Char_Position
 345              	.LVL37:
  33:.\main.c      ****     //ADC ÂàùÂßãÂåñ
 346              		.loc 1 33 0
 347              	@ 33 ".\main.c" 1
 348 0022 62B6     		CPSIE   i
 349              	@ 0 "" 2
  35:.\main.c      ****     ADC_SAR_Seq_StartConvert();
 350              		.loc 1 35 0
 351              		.code	16
 352 0024 FFF7FEFF 		bl	ADC_SAR_Seq_Start
 353              	.LVL38:
  36:.\main.c      **** 
 354              		.loc 1 36 0
 355 0028 FFF7FEFF 		bl	ADC_SAR_Seq_StartConvert
 356              	.LVL39:
 357              	.L26:
  42:.\main.c      ****         ADC_Result_L = ADC_SAR_Seq_GetResult16(0);
 358              		.loc 1 42 0
 359 002c 0220     		mov	r0, #2
 360 002e FFF7FEFF 		bl	ADC_SAR_Seq_IsEndConversion
 361              	.LVL40:
  43:.\main.c      ****         ADC_Result_R = ADC_SAR_Seq_GetResult16(1);
 362              		.loc 1 43 0
 363 0032 0020     		mov	r0, #0
 364 0034 FFF7FEFF 		bl	ADC_SAR_Seq_GetResult16
 365              	.LVL41:
 366 0038 4A4C     		ldr	r4, .L27+4
 367 003a 2060     		str	r0, [r4]
  44:.\main.c      ****         //Â∑¶‰æßÁ∫¢Â§ñÊï∞ÊçÆÂ§ÑÁêÜ
 368              		.loc 1 44 0
 369 003c 0120     		mov	r0, #1
 370 003e FFF7FEFF 		bl	ADC_SAR_Seq_GetResult16
 371              	.LVL42:
 372 0042 6060     		str	r0, [r4, #4]
  46:.\main.c      ****         if(ADC_Result_L>0)
 373              		.loc 1 46 0
 374 0044 2268     		ldr	r2, [r4]
 375 0046 484B     		ldr	r3, .L27+8
 376 0048 9A42     		cmp	r2, r3
 377 004a 02D9     		bls	.L20
  46:.\main.c      ****         if(ADC_Result_L>0)
 378              		.loc 1 46 0 is_stmt 0 discriminator 1
 379 004c 0022     		mov	r2, #0
 380 004e 454B     		ldr	r3, .L27+4
 381 0050 1A60     		str	r2, [r3]
 382              	.L20:
  47:.\main.c      ****         {
 383              		.loc 1 47 0 is_stmt 1
 384 0052 444B     		ldr	r3, .L27+4
ARM GAS  C:\Users\lenovo\AppData\Local\Temp\ccvHjfpD.s 			page 11


 385 0054 1868     		ldr	r0, [r3]
 386 0056 0028     		cmp	r0, #0
 387 0058 28D0     		beq	.L21
  49:.\main.c      ****             dis_L=(int)dist_L;
 388              		.loc 1 49 0
 389 005a FFF7FEFF 		bl	__aeabi_ui2d
 390              	.LVL43:
 391 005e 434A     		ldr	r2, .L27+12
 392 0060 434B     		ldr	r3, .L27+16
 393 0062 FFF7FEFF 		bl	__aeabi_dmul
 394              	.LVL44:
 395 0066 434A     		ldr	r2, .L27+20
 396 0068 434B     		ldr	r3, .L27+24
 397 006a FFF7FEFF 		bl	__aeabi_dsub
 398              	.LVL45:
 399 006e 021C     		mov	r2, r0
 400 0070 0B1C     		mov	r3, r1
 401 0072 0020     		mov	r0, #0
 402 0074 4149     		ldr	r1, .L27+28
 403 0076 FFF7FEFF 		bl	__aeabi_ddiv
 404              	.LVL46:
 405 007a 0022     		mov	r2, #0
 406 007c 8023     		mov	r3, #128
 407 007e DB05     		lsl	r3, r3, #23
 408 0080 FFF7FEFF 		bl	__aeabi_dsub
 409              	.LVL47:
 410 0084 FFF7FEFF 		bl	__aeabi_d2f
 411              	.LVL48:
 412 0088 3D4B     		ldr	r3, .L27+32
 413 008a 1860     		str	r0, [r3]
  50:.\main.c      ****             IntToString(string_L, dis_L);
 414              		.loc 1 50 0
 415 008c FFF7FEFF 		bl	__aeabi_f2iz
 416              	.LVL49:
 417 0090 011C     		mov	r1, r0
 418 0092 3C4B     		ldr	r3, .L27+36
 419 0094 1860     		str	r0, [r3]
  51:.\main.c      ****             LCD_Char_Position(0,0);
 420              		.loc 1 51 0
 421 0096 3C4C     		ldr	r4, .L27+40
 422 0098 201C     		mov	r0, r4
 423 009a FFF7FEFF 		bl	IntToString
 424              	.LVL50:
  52:.\main.c      ****             LCD_Char_PrintString(string_L);
 425              		.loc 1 52 0
 426 009e 0020     		mov	r0, #0
 427 00a0 0021     		mov	r1, #0
 428 00a2 FFF7FEFF 		bl	LCD_Char_Position
 429              	.LVL51:
  53:.\main.c      ****         }
 430              		.loc 1 53 0
 431 00a6 201C     		mov	r0, r4
 432 00a8 FFF7FEFF 		bl	LCD_Char_PrintString
 433              	.LVL52:
 434              	.L21:
  56:.\main.c      ****         if(ADC_Result_R>0)
 435              		.loc 1 56 0
ARM GAS  C:\Users\lenovo\AppData\Local\Temp\ccvHjfpD.s 			page 12


 436 00ac 2D4B     		ldr	r3, .L27+4
 437 00ae 5A68     		ldr	r2, [r3, #4]
 438 00b0 2D4B     		ldr	r3, .L27+8
 439 00b2 9A42     		cmp	r2, r3
 440 00b4 02D9     		bls	.L22
  56:.\main.c      ****         if(ADC_Result_R>0)
 441              		.loc 1 56 0 is_stmt 0 discriminator 1
 442 00b6 0022     		mov	r2, #0
 443 00b8 2A4B     		ldr	r3, .L27+4
 444 00ba 5A60     		str	r2, [r3, #4]
 445              	.L22:
  57:.\main.c      ****         {
 446              		.loc 1 57 0 is_stmt 1
 447 00bc 294B     		ldr	r3, .L27+4
 448 00be 5868     		ldr	r0, [r3, #4]
 449 00c0 0028     		cmp	r0, #0
 450 00c2 1CD0     		beq	.L23
  59:.\main.c      ****             dis_R=(int)dist_R;
 451              		.loc 1 59 0
 452 00c4 FFF7FEFF 		bl	__aeabi_ui2d
 453              	.LVL53:
 454 00c8 284A     		ldr	r2, .L27+12
 455 00ca 294B     		ldr	r3, .L27+16
 456 00cc FFF7FEFF 		bl	__aeabi_dmul
 457              	.LVL54:
 458 00d0 284A     		ldr	r2, .L27+20
 459 00d2 294B     		ldr	r3, .L27+24
 460 00d4 FFF7FEFF 		bl	__aeabi_dsub
 461              	.LVL55:
 462 00d8 021C     		mov	r2, r0
 463 00da 0B1C     		mov	r3, r1
 464 00dc 0020     		mov	r0, #0
 465 00de 2749     		ldr	r1, .L27+28
 466 00e0 FFF7FEFF 		bl	__aeabi_ddiv
 467              	.LVL56:
 468 00e4 0022     		mov	r2, #0
 469 00e6 8023     		mov	r3, #128
 470 00e8 DB05     		lsl	r3, r3, #23
 471 00ea FFF7FEFF 		bl	__aeabi_dsub
 472              	.LVL57:
 473 00ee FFF7FEFF 		bl	__aeabi_d2f
 474              	.LVL58:
 475 00f2 264B     		ldr	r3, .L27+44
 476 00f4 1860     		str	r0, [r3]
  60:.\main.c      ****             //IntToString(string_R, dis_R);
 477              		.loc 1 60 0
 478 00f6 FFF7FEFF 		bl	__aeabi_f2iz
 479              	.LVL59:
 480 00fa 254B     		ldr	r3, .L27+48
 481 00fc 1860     		str	r0, [r3]
 482              	.L23:
  83:.\main.c      ****         {
 483              		.loc 1 83 0
 484 00fe FFF7FEFF 		bl	Bumper_L_Read
 485              	.LVL60:
 486 0102 0028     		cmp	r0, #0
 487 0104 03D0     		beq	.L24
ARM GAS  C:\Users\lenovo\AppData\Local\Temp\ccvHjfpD.s 			page 13


  83:.\main.c      ****         {
 488              		.loc 1 83 0 is_stmt 0 discriminator 1
 489 0106 FFF7FEFF 		bl	Bumper_R_Read
 490              	.LVL61:
 491 010a 0128     		cmp	r0, #1
 492 010c 03D1     		bne	.L25
 493              	.L24:
  85:.\main.c      ****             TurnRight();
 494              		.loc 1 85 0 is_stmt 1
 495 010e FFF7FEFF 		bl	Backward
 496              	.LVL62:
  86:.\main.c      ****         }
 497              		.loc 1 86 0
 498 0112 FFF7FEFF 		bl	TurnRight
 499              	.LVL63:
 500              	.L25:
  89:.\main.c      ****         e1 = e;
 501              		.loc 1 89 0
 502 0116 134C     		ldr	r4, .L27+4
 503 0118 E368     		ldr	r3, [r4, #12]
 504 011a A360     		str	r3, [r4, #8]
  90:.\main.c      ****         e = dis_L-25;
 505              		.loc 1 90 0
 506 011c 2369     		ldr	r3, [r4, #16]
 507 011e E360     		str	r3, [r4, #12]
  91:.\main.c      ****         //ÁîµÊú∫ÊéßÂà∂
 508              		.loc 1 91 0
 509 0120 184B     		ldr	r3, .L27+36
 510 0122 1B68     		ldr	r3, [r3]
 511 0124 193B     		sub	r3, r3, #25
 512 0126 2361     		str	r3, [r4, #16]
  93:.\main.c      ****         PWM_controlled_R = 5100+100*e+50*(e+e1+e2)+10*(e-e1);
 513              		.loc 1 93 0
 514 0128 1A48     		ldr	r0, .L27+52
 515 012a FFF7FEFF 		bl	PWM_L_WriteCompare
 516              	.LVL64:
  94:.\main.c      ****         PWM_R_WriteCompare(PWM_controlled_R);
 517              		.loc 1 94 0
 518 012e 2269     		ldr	r2, [r4, #16]
 519 0130 6420     		mov	r0, #100
 520 0132 5043     		mul	r0, r2
 521 0134 184B     		ldr	r3, .L27+56
 522 0136 C518     		add	r5, r0, r3
 523 0138 E368     		ldr	r3, [r4, #12]
 524 013a D018     		add	r0, r2, r3
 525 013c A168     		ldr	r1, [r4, #8]
 526 013e 4018     		add	r0, r0, r1
 527 0140 3221     		mov	r1, #50
 528 0142 4843     		mul	r0, r1
 529 0144 2818     		add	r0, r5, r0
 530 0146 D21A     		sub	r2, r2, r3
 531 0148 9300     		lsl	r3, r2, #2
 532 014a 9B18     		add	r3, r3, r2
 533 014c 5B00     		lsl	r3, r3, #1
 534 014e C018     		add	r0, r0, r3
 535 0150 124B     		ldr	r3, .L27+60
 536 0152 1860     		str	r0, [r3]
ARM GAS  C:\Users\lenovo\AppData\Local\Temp\ccvHjfpD.s 			page 14


  95:.\main.c      ****         CyDelay(2);        
 537              		.loc 1 95 0
 538 0154 FFF7FEFF 		bl	PWM_R_WriteCompare
 539              	.LVL65:
  96:.\main.c      ****     }
 540              		.loc 1 96 0
 541 0158 0220     		mov	r0, #2
 542 015a FFF7FEFF 		bl	CyDelay
 543              	.LVL66:
  97:.\main.c      ****     /*
 544              		.loc 1 97 0
 545 015e 65E7     		b	.L26
 546              	.L28:
 547              		.align	2
 548              	.L27:
 549 0160 00000000 		.word	LCD_Char_customFonts
 550 0164 00000000 		.word	.LANCHOR0
 551 0168 FFFF0000 		.word	65535
 552 016c F168E388 		.word	-1998362383
 553 0170 B5F8F43E 		.word	1056241845
 554 0174 92CB7F48 		.word	1216334738
 555 0178 BF7D3D3F 		.word	1060994495
 556 017c 0000E03F 		.word	1071644672
 557 0180 00000000 		.word	dist_L
 558 0184 00000000 		.word	dis_L
 559 0188 00000000 		.word	string_L
 560 018c 00000000 		.word	dist_R
 561 0190 00000000 		.word	dis_R
 562 0194 04100000 		.word	4100
 563 0198 EC130000 		.word	5100
 564 019c 00000000 		.word	PWM_controlled_R
 565              		.cfi_endproc
 566              	.LFE33:
 567              		.size	main, .-main
 568              		.comm	string_R,50,4
 569              		.comm	string_L,50,4
 570              		.comm	PWM_controlled_R,4,4
 571              		.global	e2
 572              		.global	e1
 573              		.global	e
 574              		.comm	dis_R,4,4
 575              		.comm	dis_L,4,4
 576              		.comm	dist_R,4,4
 577              		.comm	dist_L,4,4
 578              		.global	ADC_Result_R
 579              		.global	ADC_Result_L
 580              		.section	.rodata.str1.4,"aMS",%progbits,1
 581              		.align	2
 582              	.LC0:
 583 0000 5475726E 		.ascii	"Turn RightTiny\000"
 583      20526967 
 583      68745469 
 583      6E7900
 584 000f 00       		.space	1
 585              	.LC2:
 586 0010 5475726E 		.ascii	"Turn Right\000"
 586      20526967 
ARM GAS  C:\Users\lenovo\AppData\Local\Temp\ccvHjfpD.s 			page 15


 586      687400
 587 001b 00       		.space	1
 588              	.LC4:
 589 001c 5475726E 		.ascii	"Turn Left\000"
 589      204C6566 
 589      7400
 590 0026 0000     		.space	2
 591              	.LC6:
 592 0028 4261636B 		.ascii	"Backward\000"
 592      77617264 
 592      00
 593 0031 000000   		.space	3
 594              	.LC8:
 595 0034 466F7277 		.ascii	"Forward\000"
 595      61726400 
 596              	.LC10:
 597 003c 256400   		.ascii	"%d\000"
 598 003f 00       		.bss
 599              		.align	2
 600              		.set	.LANCHOR0,. + 0
 601              		.type	ADC_Result_L, %object
 602              		.size	ADC_Result_L, 4
 603              	ADC_Result_L:
 604 0000 00000000 		.space	4
 605              		.type	ADC_Result_R, %object
 606              		.size	ADC_Result_R, 4
 607              	ADC_Result_R:
 608 0004 00000000 		.space	4
 609              		.type	e2, %object
 610              		.size	e2, 4
 611              	e2:
 612 0008 00000000 		.space	4
 613              		.type	e1, %object
 614              		.size	e1, 4
 615              	e1:
 616 000c 00000000 		.space	4
 617              		.type	e, %object
 618              		.size	e, 4
 619              	e:
 620 0010 00000000 		.space	4
 621              		.text
 622              	.Letext0:
 623              		.file 2 "Generated_Source\\PSoC4/cytypes.h"
 624              		.file 3 "Generated_Source\\PSoC4/LCD_Char.h"
 625              		.file 4 "Generated_Source\\PSoC4/PWM_R.h"
 626              		.file 5 "Generated_Source\\PSoC4/PWM_L.h"
 627              		.file 6 "Generated_Source\\PSoC4/CyLib.h"
 628              		.file 7 "Generated_Source\\PSoC4/ADC_SAR_Seq.h"
 629              		.file 8 "d:\\program file\\psoccreator\\psoc creator\\3.3\\psoc creator\\import\\gnu\\arm\\4.9.3\\
 630              		.file 9 "Generated_Source\\PSoC4/Bumper_L.h"
 631              		.file 10 "Generated_Source\\PSoC4/Bumper_R.h"