ARM GAS  C:\Users\lenovo\AppData\Local\Temp\cc5QfETH.s 			page 1


   1              		.cpu cortex-m0
   2              		.fpu softvfp
   3              		.eabi_attribute 20, 1
   4              		.eabi_attribute 21, 1
   5              		.eabi_attribute 23, 3
   6              		.eabi_attribute 24, 1
   7              		.eabi_attribute 25, 1
   8              		.eabi_attribute 26, 1
   9              		.eabi_attribute 30, 1
  10              		.eabi_attribute 34, 0
  11              		.eabi_attribute 18, 4
  12              		.code	16
  13              		.file	"main.c"
  14              		.text
  15              	.Ltext0:
  16              		.cfi_sections	.debug_frame
  17              		.section	.text.LCD_Display,"ax",%progbits
  18              		.align	2
  19              		.global	LCD_Display
  20              		.code	16
  21              		.thumb_func
  22              		.type	LCD_Display, %function
  23              	LCD_Display:
  24              	.LFB33:
  25              		.file 1 ".\\main.c"
   1:.\main.c      **** /* ========================================
   2:.\main.c      ****  *
   3:.\main.c      ****  * Copyright YOUR COMPANY, THE YEAR
   4:.\main.c      ****  * All Rights Reserved
   5:.\main.c      ****  * UNPUBLISHED, LICENSED SOFTWARE.
   6:.\main.c      ****  *
   7:.\main.c      ****  * CONFIDENTIAL AND PROPRIETARY INFORMATION
   8:.\main.c      ****  * WHICH IS THE PROPERTY OF your company.
   9:.\main.c      ****  *
  10:.\main.c      ****  * ========================================
  11:.\main.c      **** */
  12:.\main.c      **** #include<project.h>
  13:.\main.c      **** #include<stdio.h>//ÈúÄË¶Å‰ΩøÁî®sprintf
  14:.\main.c      **** #include<stdlib.h>
  15:.\main.c      **** 
  16:.\main.c      **** #define BlackOrWhite 600
  17:.\main.c      **** #define PWM_left_forward  4500//4150      //4200       //3500-4500-6000
  18:.\main.c      **** #define PWM_right_forward 4500//5025    //4950
  19:.\main.c      **** extern uint8 const CYCODE LCD_Char_1_customFonts[];//ËΩΩÂÖ•‰º†ÁªüÂ≠ó‰Ωì
  20:.\main.c      **** /*
  21:.\main.c      **** uint32 ADC_Result = 0;//ADC_Result;Ë°®Á§∫Êï∞ÂÄºÁöÑÂèòÈáè
  22:.\main.c      **** uint32 ADC_Result1 = 0;
  23:.\main.c      **** uint32 ADC_Result2 = 0;
  24:.\main.c      **** */
  25:.\main.c      **** int ADC_Result = 0;//ADC_Result;Ë°®Á§∫Êï∞ÂÄºÁöÑÂèòÈáè
  26:.\main.c      **** int ADC_Result1 = 0;
  27:.\main.c      **** int ADC_Result2 = 0;
  28:.\main.c      ****     //int i; //i; BarGraphÁî®
  29:.\main.c      **** char string[50];// Áî±Êï∞ÂÄºÂèòÊç¢‰∏∫Â≠óÁ¨¶‰∏≤Êó∂Â≠òÂÇ®ÁöÑÈòµÂàó
  30:.\main.c      ****    
  31:.\main.c      **** int PWM_left = PWM_left_forward;
  32:.\main.c      **** int PWM_right = PWM_right_forward;
ARM GAS  C:\Users\lenovo\AppData\Local\Temp\cc5QfETH.s 			page 2


  33:.\main.c      **** 
  34:.\main.c      **** float angle = -90.0;
  35:.\main.c      **** int Angle = 0;
  36:.\main.c      **** void LCD_Display(int i)
  37:.\main.c      **** {
  26              		.loc 1 37 0
  27              		.cfi_startproc
  28              	.LVL0:
  29 0000 38B5     		push	{r3, r4, r5, lr}
  30              		.cfi_def_cfa_offset 16
  31              		.cfi_offset 3, -16
  32              		.cfi_offset 4, -12
  33              		.cfi_offset 5, -8
  34              		.cfi_offset 14, -4
  35 0002 051C     		mov	r5, r0
  38:.\main.c      ****     //LCD_Char_1_Position(1,0);
  39:.\main.c      **** 	//LCD_Char_1_PrintString("   ");       //ËæìÂÖ•ÂâçÊ∏ÖÂ±è        
  40:.\main.c      **** 	//LCD_Char_1_Position(1,0);
  41:.\main.c      ****     sprintf(string," ");
  36              		.loc 1 41 0
  37 0004 074C     		ldr	r4, .L2
  38 0006 201C     		mov	r0, r4
  39              	.LVL1:
  40 0008 0749     		ldr	r1, .L2+4
  41 000a 0222     		mov	r2, #2
  42 000c FFF7FEFF 		bl	memcpy
  43              	.LVL2:
  42:.\main.c      **** 	sprintf(string,"%d",i);
  44              		.loc 1 42 0
  45 0010 201C     		mov	r0, r4
  46 0012 0649     		ldr	r1, .L2+8
  47 0014 2A1C     		mov	r2, r5
  48 0016 FFF7FEFF 		bl	sprintf
  49              	.LVL3:
  43:.\main.c      **** 	LCD_Char_1_PrintString(string);
  50              		.loc 1 43 0
  51 001a 201C     		mov	r0, r4
  52 001c FFF7FEFF 		bl	LCD_Char_1_PrintString
  53              	.LVL4:
  44:.\main.c      **** }
  54              		.loc 1 44 0
  55              		@ sp needed
  56              	.LVL5:
  57 0020 38BD     		pop	{r3, r4, r5, pc}
  58              	.L3:
  59 0022 C046     		.align	2
  60              	.L2:
  61 0024 00000000 		.word	string
  62 0028 00000000 		.word	.LC1
  63 002c 04000000 		.word	.LC3
  64              		.cfi_endproc
  65              	.LFE33:
  66              		.size	LCD_Display, .-LCD_Display
  67              		.section	.text.main,"ax",%progbits
  68              		.align	2
  69              		.global	main
  70              		.code	16
ARM GAS  C:\Users\lenovo\AppData\Local\Temp\cc5QfETH.s 			page 3


  71              		.thumb_func
  72              		.type	main, %function
  73              	main:
  74              	.LFB34:
  45:.\main.c      **** 
  46:.\main.c      **** 
  47:.\main.c      **** int main()
  48:.\main.c      **** {
  75              		.loc 1 48 0
  76              		.cfi_startproc
  77 0000 38B5     		push	{r3, r4, r5, lr}
  78              		.cfi_def_cfa_offset 16
  79              		.cfi_offset 3, -16
  80              		.cfi_offset 4, -12
  81              		.cfi_offset 5, -8
  82              		.cfi_offset 14, -4
  49:.\main.c      ****     CyGlobalIntEnable;
  83              		.loc 1 49 0
  84              	@ 49 ".\main.c" 1
  85 0002 62B6     		CPSIE   i
  86              	@ 0 "" 2
  50:.\main.c      ****     UART_Start();     //‰ΩøÁî®3.3VÁîµÊ∫êÊó∂
  87              		.loc 1 50 0
  88              		.code	16
  89 0004 FFF7FEFF 		bl	UART_Start
  90              	.LVL6:
  51:.\main.c      ****     UART_UartPutString("Data Start");
  91              		.loc 1 51 0
  92 0008 4048     		ldr	r0, .L9
  93 000a FFF7FEFF 		bl	UART_UartPutString
  94              	.LVL7:
  52:.\main.c      ****     UART_UartPutString("\r\n");
  95              		.loc 1 52 0
  96 000e 4048     		ldr	r0, .L9+4
  97 0010 FFF7FEFF 		bl	UART_UartPutString
  98              	.LVL8:
  53:.\main.c      ****     CyDelay(1); 
  99              		.loc 1 53 0
 100 0014 0120     		mov	r0, #1
 101 0016 FFF7FEFF 		bl	CyDelay
 102              	.LVL9:
  54:.\main.c      ****     
  55:.\main.c      ****     LCD_Char_1_Start();
 103              		.loc 1 55 0
 104 001a FFF7FEFF 		bl	LCD_Char_1_Start
 105              	.LVL10:
  56:.\main.c      ****     LCD_Char_1_LoadCustomFonts(LCD_Char_1_customFonts);
 106              		.loc 1 56 0
 107 001e 3D48     		ldr	r0, .L9+8
 108 0020 FFF7FEFF 		bl	LCD_Char_1_LoadCustomFonts
 109              	.LVL11:
  57:.\main.c      ****     LCD_Char_1_ClearDisplay();
 110              		.loc 1 57 0
 111 0024 0120     		mov	r0, #1
 112 0026 FFF7FEFF 		bl	LCD_Char_1_WriteControl
 113              	.LVL12:
  58:.\main.c      ****     LCD_Char_1_Position(0,0);
ARM GAS  C:\Users\lenovo\AppData\Local\Temp\cc5QfETH.s 			page 4


 114              		.loc 1 58 0
 115 002a 0020     		mov	r0, #0
 116 002c 0021     		mov	r1, #0
 117 002e FFF7FEFF 		bl	LCD_Char_1_Position
 118              	.LVL13:
  59:.\main.c      ****     LCD_Char_1_PrintString("START!");
 119              		.loc 1 59 0
 120 0032 3948     		ldr	r0, .L9+12
 121 0034 FFF7FEFF 		bl	LCD_Char_1_PrintString
 122              	.LVL14:
  60:.\main.c      ****     CyDelay(10);
 123              		.loc 1 60 0
 124 0038 0A20     		mov	r0, #10
 125 003a FFF7FEFF 		bl	CyDelay
 126              	.LVL15:
  61:.\main.c      ****     
  62:.\main.c      ****     ADC_SAR_Seq_Start();
 127              		.loc 1 62 0
 128 003e FFF7FEFF 		bl	ADC_SAR_Seq_Start
 129              	.LVL16:
  63:.\main.c      ****     ADC_SAR_Seq_StartConvert(); //ÂºÄÂßãADËΩ¨Êç¢ÔºåÂõ†‰∏∫Âú®ÁªÑ‰ª∂Â±ûÊÄßÈáåËÆæÂÆö‰∏∫ContinuousÔºåÂõ
 130              		.loc 1 63 0
 131 0042 FFF7FEFF 		bl	ADC_SAR_Seq_StartConvert
 132              	.LVL17:
  64:.\main.c      ****     
  65:.\main.c      ****     PWM_Start();
 133              		.loc 1 65 0
 134 0046 FFF7FEFF 		bl	PWM_Start
 135              	.LVL18:
  66:.\main.c      ****     PWM_1_Start();
 136              		.loc 1 66 0
 137 004a FFF7FEFF 		bl	PWM_1_Start
 138              	.LVL19:
 139              	.L8:
  67:.\main.c      ****     
  68:.\main.c      ****     for(;;)
  69:.\main.c      ****     {
  70:.\main.c      ****         
  71:.\main.c      ****         
  72:.\main.c      ****         //ADCÁöÑËΩ¨Êç¢ÁªìÊùüÔºåÂ≠òÂÇ®ÁªìÊùüÂâç‰∏ÄÁõ¥ÂæÖÊú∫
  73:.\main.c      ****         ADC_SAR_Seq_IsEndConversion(ADC_SAR_Seq_WAIT_FOR_RESULT);
 140              		.loc 1 73 0
 141 004e 0220     		mov	r0, #2
 142 0050 FFF7FEFF 		bl	ADC_SAR_Seq_IsEndConversion
 143              	.LVL20:
  74:.\main.c      ****         ADC_Result = ADC_SAR_Seq_GetResult16(0);
 144              		.loc 1 74 0
 145 0054 0020     		mov	r0, #0
 146 0056 FFF7FEFF 		bl	ADC_SAR_Seq_GetResult16
 147              	.LVL21:
 148 005a 304C     		ldr	r4, .L9+16
 149 005c 2060     		str	r0, [r4]
  75:.\main.c      ****         //CyDelay(10);
  76:.\main.c      ****         ADC_Result1 = ADC_SAR_Seq_GetResult16(1);
 150              		.loc 1 76 0
 151 005e 0120     		mov	r0, #1
 152 0060 FFF7FEFF 		bl	ADC_SAR_Seq_GetResult16
ARM GAS  C:\Users\lenovo\AppData\Local\Temp\cc5QfETH.s 			page 5


 153              	.LVL22:
 154 0064 6060     		str	r0, [r4, #4]
  77:.\main.c      ****         //CyDelay(10);
  78:.\main.c      ****         ADC_Result2 = ADC_SAR_Seq_GetResult16(2);
 155              		.loc 1 78 0
 156 0066 0220     		mov	r0, #2
 157 0068 FFF7FEFF 		bl	ADC_SAR_Seq_GetResult16
 158              	.LVL23:
 159 006c A060     		str	r0, [r4, #8]
  79:.\main.c      ****         //CyDelay(10);
  80:.\main.c      **** 
  81:.\main.c      ****         //UARTÊòæÁ§∫Êï∞ÊçÆ
  82:.\main.c      ****         /*UART_UartPutString("CCD1-");
  83:.\main.c      ****         sprintf(string, "%d", ADC_Result);
  84:.\main.c      ****         UART_UartPutString(string);
  85:.\main.c      ****         UART_UartPutString("   CCD2-");
  86:.\main.c      ****         sprintf(string, "%d", ADC_Result1);
  87:.\main.c      ****         UART_UartPutString(string);
  88:.\main.c      ****         UART_UartPutString("   CCD3-");
  89:.\main.c      ****         sprintf(string, "%d", ADC_Result2);
  90:.\main.c      ****         UART_UartPutString(string);
  91:.\main.c      ****         UART_UartPutString("\r\n");
  92:.\main.c      ****         UART_UartPutCRLF(0x0D);
  93:.\main.c      ****         CyDelay(500);*/
  94:.\main.c      ****         
  95:.\main.c      ****         
  96:.\main.c      ****         //LCDÊòæÁ§∫Êï∞ÊçÆ
  97:.\main.c      ****         LCD_Char_1_ClearDisplay();
 160              		.loc 1 97 0
 161 006e 0120     		mov	r0, #1
 162 0070 FFF7FEFF 		bl	LCD_Char_1_WriteControl
 163              	.LVL24:
  98:.\main.c      ****         LCD_Char_1_Position(1,0);
 164              		.loc 1 98 0
 165 0074 0120     		mov	r0, #1
 166 0076 0021     		mov	r1, #0
 167 0078 FFF7FEFF 		bl	LCD_Char_1_Position
 168              	.LVL25:
  99:.\main.c      ****         //LCD_Char_1_PrintString("CCD1-");
 100:.\main.c      ****         LCD_Display(ADC_Result);
 169              		.loc 1 100 0
 170 007c 2068     		ldr	r0, [r4]
 171 007e FFF7FEFF 		bl	LCD_Display
 172              	.LVL26:
 101:.\main.c      ****         //LCD_Char_1_Position(1,0);
 102:.\main.c      ****         LCD_Char_1_PrintString("-");
 173              		.loc 1 102 0
 174 0082 274D     		ldr	r5, .L9+20
 175 0084 281C     		mov	r0, r5
 176 0086 FFF7FEFF 		bl	LCD_Char_1_PrintString
 177              	.LVL27:
 103:.\main.c      ****         LCD_Display(ADC_Result1);
 178              		.loc 1 103 0
 179 008a 6068     		ldr	r0, [r4, #4]
 180 008c FFF7FEFF 		bl	LCD_Display
 181              	.LVL28:
 104:.\main.c      ****         //LCD_Char_1_Position(0,11); 
ARM GAS  C:\Users\lenovo\AppData\Local\Temp\cc5QfETH.s 			page 6


 105:.\main.c      ****         LCD_Char_1_PrintString("-");
 182              		.loc 1 105 0
 183 0090 281C     		mov	r0, r5
 184 0092 FFF7FEFF 		bl	LCD_Char_1_PrintString
 185              	.LVL29:
 106:.\main.c      ****         //LCD_Char_1_Position(1,11);
 107:.\main.c      ****         LCD_Display(ADC_Result2);      
 186              		.loc 1 107 0
 187 0096 A068     		ldr	r0, [r4, #8]
 188 0098 FFF7FEFF 		bl	LCD_Display
 189              	.LVL30:
 108:.\main.c      ****         //CyDelay(500);
 109:.\main.c      ****         
 110:.\main.c      ****         //Ë∞ÉÊï¥PWMÂç†Á©∫ÊØîËΩ¨Âêë
 111:.\main.c      ****         PWM_left = PWM_left_forward;
 190              		.loc 1 111 0
 191 009c 214B     		ldr	r3, .L9+24
 192 009e 224A     		ldr	r2, .L9+28
 193 00a0 1A60     		str	r2, [r3]
 112:.\main.c      ****         PWM_right = PWM_right_forward;
 194              		.loc 1 112 0
 195 00a2 5A60     		str	r2, [r3, #4]
 113:.\main.c      ****         if(ADC_Result < BlackOrWhite) 
 196              		.loc 1 113 0
 197 00a4 2268     		ldr	r2, [r4]
 198 00a6 214B     		ldr	r3, .L9+32
 199 00a8 9A42     		cmp	r2, r3
 200 00aa 0BDC     		bgt	.L5
 114:.\main.c      ****         {  
 115:.\main.c      ****             //angle = (90.0*(ADC_Result - 4500))/2500;  
 116:.\main.c      ****             //Angle=(int)angle;
 117:.\main.c      ****             //sprintf(string, "%d", Angle);
 118:.\main.c      ****             //LCD_Char_1_ClearDisplay();
 119:.\main.c      ****             LCD_Char_1_Position(0,0);
 201              		.loc 1 119 0
 202 00ac 0020     		mov	r0, #0
 203 00ae 0021     		mov	r1, #0
 204 00b0 FFF7FEFF 		bl	LCD_Char_1_Position
 205              	.LVL31:
 120:.\main.c      ****             LCD_Char_1_PrintString("Turn left:");
 206              		.loc 1 120 0
 207 00b4 1E48     		ldr	r0, .L9+36
 208 00b6 FFF7FEFF 		bl	LCD_Char_1_PrintString
 209              	.LVL32:
 121:.\main.c      ****             //LCD_Char_1_Position(1,0);
 122:.\main.c      ****             //LCD_Char_1_PrintString(string);
 123:.\main.c      ****             //if(ADC_Result1 < BlackOrWhite) PWM_left = 4400;
 124:.\main.c      ****             //else PWM_left = PWM_left_forward + (BlackOrWhite - ADC_Result);  
 125:.\main.c      ****             PWM_left = 4500;//4450;  //4400;
 210              		.loc 1 125 0
 211 00ba 1A4B     		ldr	r3, .L9+24
 212 00bc 1A4A     		ldr	r2, .L9+28
 213 00be 1A60     		str	r2, [r3]
 126:.\main.c      ****             PWM_right = 4500;//5000;//4950;    //4950;
 214              		.loc 1 126 0
 215 00c0 5A60     		str	r2, [r3, #4]
 216 00c2 17E0     		b	.L6
ARM GAS  C:\Users\lenovo\AppData\Local\Temp\cc5QfETH.s 			page 7


 217              	.L5:
 127:.\main.c      ****         }
 128:.\main.c      ****         else if(ADC_Result2 < BlackOrWhite) 
 218              		.loc 1 128 0
 219 00c4 154B     		ldr	r3, .L9+16
 220 00c6 9A68     		ldr	r2, [r3, #8]
 221 00c8 184B     		ldr	r3, .L9+32
 222 00ca 9A42     		cmp	r2, r3
 223 00cc 0BDC     		bgt	.L7
 129:.\main.c      ****         {  
 130:.\main.c      ****             //angle = (90.0*(ADC_Result2 - 4500))/2500;  
 131:.\main.c      ****             //Angle=(int)angle;
 132:.\main.c      ****             //sprintf(string, "%d", Angle);
 133:.\main.c      ****             //LCD_Char_1_ClearDisplay();
 134:.\main.c      ****             LCD_Char_1_Position(0,0);
 224              		.loc 1 134 0
 225 00ce 0020     		mov	r0, #0
 226 00d0 0021     		mov	r1, #0
 227 00d2 FFF7FEFF 		bl	LCD_Char_1_Position
 228              	.LVL33:
 135:.\main.c      ****             LCD_Char_1_PrintString("Turn right:");
 229              		.loc 1 135 0
 230 00d6 1748     		ldr	r0, .L9+40
 231 00d8 FFF7FEFF 		bl	LCD_Char_1_PrintString
 232              	.LVL34:
 136:.\main.c      ****             //LCD_Char_1_Position(1,0);
 137:.\main.c      ****             //LCD_Char_1_PrintString(string);
 138:.\main.c      ****             //if(ADC_Result1 < BlackOrWhite) PWM_right = 4500;
 139:.\main.c      ****             //else PWM_right = PWM_right_forward - (BlackOrWhite - ADC_Result) * 2;  
 140:.\main.c      ****             PWM_left = 4500;//4050;//4100    //4000
 233              		.loc 1 140 0
 234 00dc 114B     		ldr	r3, .L9+24
 235 00de 124A     		ldr	r2, .L9+28
 236 00e0 1A60     		str	r2, [r3]
 141:.\main.c      ****             PWM_right = 4500;//4550;//4500;    //4500
 237              		.loc 1 141 0
 238 00e2 5A60     		str	r2, [r3, #4]
 239 00e4 06E0     		b	.L6
 240              	.L7:
 142:.\main.c      ****         }
 143:.\main.c      ****         else
 144:.\main.c      ****         {
 145:.\main.c      ****             //LCD_Char_1_ClearDisplay();
 146:.\main.c      ****             LCD_Char_1_Position(0,0);
 241              		.loc 1 146 0
 242 00e6 0020     		mov	r0, #0
 243 00e8 0021     		mov	r1, #0
 244 00ea FFF7FEFF 		bl	LCD_Char_1_Position
 245              	.LVL35:
 147:.\main.c      ****             LCD_Char_1_PrintString("Go forward");
 246              		.loc 1 147 0
 247 00ee 1248     		ldr	r0, .L9+44
 248 00f0 FFF7FEFF 		bl	LCD_Char_1_PrintString
 249              	.LVL36:
 250              	.L6:
 148:.\main.c      ****         }
 149:.\main.c      ****         PWM_WriteCompare(PWM_left);
ARM GAS  C:\Users\lenovo\AppData\Local\Temp\cc5QfETH.s 			page 8


 251              		.loc 1 149 0
 252 00f4 0B4C     		ldr	r4, .L9+24
 253 00f6 2068     		ldr	r0, [r4]
 254 00f8 FFF7FEFF 		bl	PWM_WriteCompare
 255              	.LVL37:
 150:.\main.c      ****         PWM_1_WriteCompare(PWM_right);
 256              		.loc 1 150 0
 257 00fc 6068     		ldr	r0, [r4, #4]
 258 00fe FFF7FEFF 		bl	PWM_1_WriteCompare
 259              	.LVL38:
 151:.\main.c      ****         CyDelay(10);
 260              		.loc 1 151 0
 261 0102 0A20     		mov	r0, #10
 262 0104 FFF7FEFF 		bl	CyDelay
 263              	.LVL39:
 152:.\main.c      ****     }
 264              		.loc 1 152 0
 265 0108 A1E7     		b	.L8
 266              	.L10:
 267 010a C046     		.align	2
 268              	.L9:
 269 010c 08000000 		.word	.LC5
 270 0110 14000000 		.word	.LC7
 271 0114 00000000 		.word	LCD_Char_1_customFonts
 272 0118 18000000 		.word	.LC10
 273 011c 00000000 		.word	.LANCHOR0
 274 0120 20000000 		.word	.LC13
 275 0124 00000000 		.word	.LANCHOR1
 276 0128 94110000 		.word	4500
 277 012c 57020000 		.word	599
 278 0130 24000000 		.word	.LC16
 279 0134 30000000 		.word	.LC18
 280 0138 3C000000 		.word	.LC20
 281              		.cfi_endproc
 282              	.LFE34:
 283              		.size	main, .-main
 284              		.global	Angle
 285              		.global	angle
 286              		.global	PWM_right
 287              		.global	PWM_left
 288              		.comm	string,50,4
 289              		.global	ADC_Result2
 290              		.global	ADC_Result1
 291              		.global	ADC_Result
 292              		.data
 293              		.align	2
 294              		.set	.LANCHOR1,. + 0
 295              		.type	PWM_left, %object
 296              		.size	PWM_left, 4
 297              	PWM_left:
 298 0000 94110000 		.word	4500
 299              		.type	PWM_right, %object
 300              		.size	PWM_right, 4
 301              	PWM_right:
 302 0004 94110000 		.word	4500
 303              		.type	angle, %object
 304              		.size	angle, 4
ARM GAS  C:\Users\lenovo\AppData\Local\Temp\cc5QfETH.s 			page 9


 305              	angle:
 306 0008 0000B4C2 		.word	-1028390912
 307              		.section	.rodata.str1.4,"aMS",%progbits,1
 308              		.align	2
 309              	.LC1:
 310 0000 2000     		.ascii	" \000"
 311 0002 0000     		.space	2
 312              	.LC3:
 313 0004 256400   		.ascii	"%d\000"
 314 0007 00       		.space	1
 315              	.LC5:
 316 0008 44617461 		.ascii	"Data Start\000"
 316      20537461 
 316      727400
 317 0013 00       		.space	1
 318              	.LC7:
 319 0014 0D0A00   		.ascii	"\015\012\000"
 320 0017 00       		.space	1
 321              	.LC10:
 322 0018 53544152 		.ascii	"START!\000"
 322      542100
 323 001f 00       		.space	1
 324              	.LC13:
 325 0020 2D00     		.ascii	"-\000"
 326 0022 0000     		.space	2
 327              	.LC16:
 328 0024 5475726E 		.ascii	"Turn left:\000"
 328      206C6566 
 328      743A00
 329 002f 00       		.space	1
 330              	.LC18:
 331 0030 5475726E 		.ascii	"Turn right:\000"
 331      20726967 
 331      68743A00 
 332              	.LC20:
 333 003c 476F2066 		.ascii	"Go forward\000"
 333      6F727761 
 333      726400
 334 0047 00       		.bss
 335              		.align	2
 336              		.set	.LANCHOR0,. + 0
 337              		.type	ADC_Result, %object
 338              		.size	ADC_Result, 4
 339              	ADC_Result:
 340 0000 00000000 		.space	4
 341              		.type	ADC_Result1, %object
 342              		.size	ADC_Result1, 4
 343              	ADC_Result1:
 344 0004 00000000 		.space	4
 345              		.type	ADC_Result2, %object
 346              		.size	ADC_Result2, 4
 347              	ADC_Result2:
 348 0008 00000000 		.space	4
 349              		.type	Angle, %object
 350              		.size	Angle, 4
 351              	Angle:
 352 000c 00000000 		.space	4
ARM GAS  C:\Users\lenovo\AppData\Local\Temp\cc5QfETH.s 			page 10


 353              		.text
 354              	.Letext0:
 355              		.file 2 "Generated_Source\\PSoC4/cytypes.h"
 356              		.file 3 "Generated_Source\\PSoC4/LCD_Char_1.h"
 357              		.file 4 "Generated_Source\\PSoC4/UART_SPI_UART.h"
 358              		.file 5 "Generated_Source\\PSoC4/CyLib.h"
 359              		.file 6 "Generated_Source\\PSoC4/UART.h"
 360              		.file 7 "Generated_Source\\PSoC4/ADC_SAR_Seq.h"
 361              		.file 8 "Generated_Source\\PSoC4/PWM.h"
 362              		.file 9 "Generated_Source\\PSoC4/PWM_1.h"
 363              		.file 10 "d:\\newprogram\\psoc\\psoc creator\\3.3\\psoc creator\\import\\gnu\\arm\\4.9.3\\arm-none